; Listing generated by Microsoft (R) Optimizing Compiler Version 16.00.30319.01 

	TITLE	D:\Tools\Dev\Workspace\VS2010\Projects\cpprimer\cpprimer\ch7_exAll.cpp
	.686P
	.XMM
	include listing.inc
	.model	flat

INCLUDELIB MSVCRTD
INCLUDELIB OLDNAMES

PUBLIC	?value@?$integral_constant@_N$0A@@tr1@std@@2_NB	; std::tr1::integral_constant<bool,0>::value
PUBLIC	?value@?$integral_constant@_N$00@tr1@std@@2_NB	; std::tr1::integral_constant<bool,1>::value
PUBLIC	?value@?$integral_constant@I$0A@@tr1@std@@2IB	; std::tr1::integral_constant<unsigned int,0>::value
PUBLIC	?_Rank@?$_Arithmetic_traits@_N@std@@2HB		; std::_Arithmetic_traits<bool>::_Rank
PUBLIC	?_Rank@?$_Arithmetic_traits@D@std@@2HB		; std::_Arithmetic_traits<char>::_Rank
PUBLIC	?_Rank@?$_Arithmetic_traits@C@std@@2HB		; std::_Arithmetic_traits<signed char>::_Rank
PUBLIC	?_Rank@?$_Arithmetic_traits@E@std@@2HB		; std::_Arithmetic_traits<unsigned char>::_Rank
PUBLIC	?_Rank@?$_Arithmetic_traits@F@std@@2HB		; std::_Arithmetic_traits<short>::_Rank
PUBLIC	?_Rank@?$_Arithmetic_traits@G@std@@2HB		; std::_Arithmetic_traits<unsigned short>::_Rank
PUBLIC	?_Rank@?$_Arithmetic_traits@H@std@@2HB		; std::_Arithmetic_traits<int>::_Rank
PUBLIC	?_Rank@?$_Arithmetic_traits@I@std@@2HB		; std::_Arithmetic_traits<unsigned int>::_Rank
PUBLIC	?_Rank@?$_Arithmetic_traits@J@std@@2HB		; std::_Arithmetic_traits<long>::_Rank
PUBLIC	?_Rank@?$_Arithmetic_traits@K@std@@2HB		; std::_Arithmetic_traits<unsigned long>::_Rank
PUBLIC	?_Rank@?$_Arithmetic_traits@_J@std@@2HB		; std::_Arithmetic_traits<__int64>::_Rank
PUBLIC	?_Rank@?$_Arithmetic_traits@_K@std@@2HB		; std::_Arithmetic_traits<unsigned __int64>::_Rank
PUBLIC	?_Rank@?$_Arithmetic_traits@M@std@@2HB		; std::_Arithmetic_traits<float>::_Rank
PUBLIC	?_Rank@?$_Arithmetic_traits@N@std@@2HB		; std::_Arithmetic_traits<double>::_Rank
PUBLIC	?_Rank@?$_Arithmetic_traits@O@std@@2HB		; std::_Arithmetic_traits<long double>::_Rank
PUBLIC	?collate@?$_Locbase@H@std@@2HB			; std::_Locbase<int>::collate
PUBLIC	?ctype@?$_Locbase@H@std@@2HB			; std::_Locbase<int>::ctype
PUBLIC	?monetary@?$_Locbase@H@std@@2HB			; std::_Locbase<int>::monetary
PUBLIC	?numeric@?$_Locbase@H@std@@2HB			; std::_Locbase<int>::numeric
PUBLIC	?time@?$_Locbase@H@std@@2HB			; std::_Locbase<int>::time
PUBLIC	?messages@?$_Locbase@H@std@@2HB			; std::_Locbase<int>::messages
PUBLIC	?all@?$_Locbase@H@std@@2HB			; std::_Locbase<int>::all
PUBLIC	?none@?$_Locbase@H@std@@2HB			; std::_Locbase<int>::none
PUBLIC	?skipws@?$_Iosb@H@std@@2W4_Fmtflags@12@B	; std::_Iosb<int>::skipws
PUBLIC	?unitbuf@?$_Iosb@H@std@@2W4_Fmtflags@12@B	; std::_Iosb<int>::unitbuf
PUBLIC	?uppercase@?$_Iosb@H@std@@2W4_Fmtflags@12@B	; std::_Iosb<int>::uppercase
PUBLIC	?showbase@?$_Iosb@H@std@@2W4_Fmtflags@12@B	; std::_Iosb<int>::showbase
PUBLIC	?showpoint@?$_Iosb@H@std@@2W4_Fmtflags@12@B	; std::_Iosb<int>::showpoint
PUBLIC	?showpos@?$_Iosb@H@std@@2W4_Fmtflags@12@B	; std::_Iosb<int>::showpos
PUBLIC	?left@?$_Iosb@H@std@@2W4_Fmtflags@12@B		; std::_Iosb<int>::left
PUBLIC	?right@?$_Iosb@H@std@@2W4_Fmtflags@12@B		; std::_Iosb<int>::right
PUBLIC	?internal@?$_Iosb@H@std@@2W4_Fmtflags@12@B	; std::_Iosb<int>::internal
PUBLIC	?dec@?$_Iosb@H@std@@2W4_Fmtflags@12@B		; std::_Iosb<int>::dec
PUBLIC	?oct@?$_Iosb@H@std@@2W4_Fmtflags@12@B		; std::_Iosb<int>::oct
PUBLIC	?hex@?$_Iosb@H@std@@2W4_Fmtflags@12@B		; std::_Iosb<int>::hex
PUBLIC	?scientific@?$_Iosb@H@std@@2W4_Fmtflags@12@B	; std::_Iosb<int>::scientific
PUBLIC	?fixed@?$_Iosb@H@std@@2W4_Fmtflags@12@B		; std::_Iosb<int>::fixed
PUBLIC	?hexfloat@?$_Iosb@H@std@@2W4_Fmtflags@12@B	; std::_Iosb<int>::hexfloat
PUBLIC	?boolalpha@?$_Iosb@H@std@@2W4_Fmtflags@12@B	; std::_Iosb<int>::boolalpha
PUBLIC	?_Stdio@?$_Iosb@H@std@@2W4_Fmtflags@12@B	; std::_Iosb<int>::_Stdio
PUBLIC	?adjustfield@?$_Iosb@H@std@@2W4_Fmtflags@12@B	; std::_Iosb<int>::adjustfield
PUBLIC	?basefield@?$_Iosb@H@std@@2W4_Fmtflags@12@B	; std::_Iosb<int>::basefield
PUBLIC	?floatfield@?$_Iosb@H@std@@2W4_Fmtflags@12@B	; std::_Iosb<int>::floatfield
PUBLIC	?goodbit@?$_Iosb@H@std@@2W4_Iostate@12@B	; std::_Iosb<int>::goodbit
PUBLIC	?eofbit@?$_Iosb@H@std@@2W4_Iostate@12@B		; std::_Iosb<int>::eofbit
PUBLIC	?failbit@?$_Iosb@H@std@@2W4_Iostate@12@B	; std::_Iosb<int>::failbit
PUBLIC	?badbit@?$_Iosb@H@std@@2W4_Iostate@12@B		; std::_Iosb<int>::badbit
PUBLIC	?_Hardfail@?$_Iosb@H@std@@2W4_Iostate@12@B	; std::_Iosb<int>::_Hardfail
PUBLIC	?in@?$_Iosb@H@std@@2W4_Openmode@12@B		; std::_Iosb<int>::in
PUBLIC	?out@?$_Iosb@H@std@@2W4_Openmode@12@B		; std::_Iosb<int>::out
PUBLIC	?ate@?$_Iosb@H@std@@2W4_Openmode@12@B		; std::_Iosb<int>::ate
PUBLIC	?app@?$_Iosb@H@std@@2W4_Openmode@12@B		; std::_Iosb<int>::app
PUBLIC	?trunc@?$_Iosb@H@std@@2W4_Openmode@12@B		; std::_Iosb<int>::trunc
PUBLIC	?_Nocreate@?$_Iosb@H@std@@2W4_Openmode@12@B	; std::_Iosb<int>::_Nocreate
PUBLIC	?_Noreplace@?$_Iosb@H@std@@2W4_Openmode@12@B	; std::_Iosb<int>::_Noreplace
PUBLIC	?binary@?$_Iosb@H@std@@2W4_Openmode@12@B	; std::_Iosb<int>::binary
PUBLIC	?beg@?$_Iosb@H@std@@2W4_Seekdir@12@B		; std::_Iosb<int>::beg
PUBLIC	?cur@?$_Iosb@H@std@@2W4_Seekdir@12@B		; std::_Iosb<int>::cur
PUBLIC	?end@?$_Iosb@H@std@@2W4_Seekdir@12@B		; std::_Iosb<int>::end
;	COMDAT ?end@?$_Iosb@H@std@@2W4_Seekdir@12@B
CONST	SEGMENT
?end@?$_Iosb@H@std@@2W4_Seekdir@12@B DD 02H		; std::_Iosb<int>::end
CONST	ENDS
;	COMDAT ?cur@?$_Iosb@H@std@@2W4_Seekdir@12@B
CONST	SEGMENT
?cur@?$_Iosb@H@std@@2W4_Seekdir@12@B DD 01H		; std::_Iosb<int>::cur
CONST	ENDS
;	COMDAT ?beg@?$_Iosb@H@std@@2W4_Seekdir@12@B
CONST	SEGMENT
?beg@?$_Iosb@H@std@@2W4_Seekdir@12@B DD 00H		; std::_Iosb<int>::beg
CONST	ENDS
;	COMDAT ?binary@?$_Iosb@H@std@@2W4_Openmode@12@B
CONST	SEGMENT
?binary@?$_Iosb@H@std@@2W4_Openmode@12@B DD 020H	; std::_Iosb<int>::binary
CONST	ENDS
;	COMDAT ?_Noreplace@?$_Iosb@H@std@@2W4_Openmode@12@B
CONST	SEGMENT
?_Noreplace@?$_Iosb@H@std@@2W4_Openmode@12@B DD 080H	; std::_Iosb<int>::_Noreplace
CONST	ENDS
;	COMDAT ?_Nocreate@?$_Iosb@H@std@@2W4_Openmode@12@B
CONST	SEGMENT
?_Nocreate@?$_Iosb@H@std@@2W4_Openmode@12@B DD 040H	; std::_Iosb<int>::_Nocreate
CONST	ENDS
;	COMDAT ?trunc@?$_Iosb@H@std@@2W4_Openmode@12@B
CONST	SEGMENT
?trunc@?$_Iosb@H@std@@2W4_Openmode@12@B DD 010H		; std::_Iosb<int>::trunc
CONST	ENDS
;	COMDAT ?app@?$_Iosb@H@std@@2W4_Openmode@12@B
CONST	SEGMENT
?app@?$_Iosb@H@std@@2W4_Openmode@12@B DD 08H		; std::_Iosb<int>::app
CONST	ENDS
;	COMDAT ?ate@?$_Iosb@H@std@@2W4_Openmode@12@B
CONST	SEGMENT
?ate@?$_Iosb@H@std@@2W4_Openmode@12@B DD 04H		; std::_Iosb<int>::ate
CONST	ENDS
;	COMDAT ?out@?$_Iosb@H@std@@2W4_Openmode@12@B
CONST	SEGMENT
?out@?$_Iosb@H@std@@2W4_Openmode@12@B DD 02H		; std::_Iosb<int>::out
CONST	ENDS
;	COMDAT ?in@?$_Iosb@H@std@@2W4_Openmode@12@B
CONST	SEGMENT
?in@?$_Iosb@H@std@@2W4_Openmode@12@B DD 01H		; std::_Iosb<int>::in
CONST	ENDS
;	COMDAT ?_Hardfail@?$_Iosb@H@std@@2W4_Iostate@12@B
CONST	SEGMENT
?_Hardfail@?$_Iosb@H@std@@2W4_Iostate@12@B DD 010H	; std::_Iosb<int>::_Hardfail
CONST	ENDS
;	COMDAT ?badbit@?$_Iosb@H@std@@2W4_Iostate@12@B
CONST	SEGMENT
?badbit@?$_Iosb@H@std@@2W4_Iostate@12@B DD 04H		; std::_Iosb<int>::badbit
CONST	ENDS
;	COMDAT ?failbit@?$_Iosb@H@std@@2W4_Iostate@12@B
CONST	SEGMENT
?failbit@?$_Iosb@H@std@@2W4_Iostate@12@B DD 02H		; std::_Iosb<int>::failbit
CONST	ENDS
;	COMDAT ?eofbit@?$_Iosb@H@std@@2W4_Iostate@12@B
CONST	SEGMENT
?eofbit@?$_Iosb@H@std@@2W4_Iostate@12@B DD 01H		; std::_Iosb<int>::eofbit
CONST	ENDS
;	COMDAT ?goodbit@?$_Iosb@H@std@@2W4_Iostate@12@B
CONST	SEGMENT
?goodbit@?$_Iosb@H@std@@2W4_Iostate@12@B DD 00H		; std::_Iosb<int>::goodbit
CONST	ENDS
;	COMDAT ?floatfield@?$_Iosb@H@std@@2W4_Fmtflags@12@B
CONST	SEGMENT
?floatfield@?$_Iosb@H@std@@2W4_Fmtflags@12@B DD 03000H	; std::_Iosb<int>::floatfield
CONST	ENDS
;	COMDAT ?basefield@?$_Iosb@H@std@@2W4_Fmtflags@12@B
CONST	SEGMENT
?basefield@?$_Iosb@H@std@@2W4_Fmtflags@12@B DD 0e00H	; std::_Iosb<int>::basefield
CONST	ENDS
;	COMDAT ?adjustfield@?$_Iosb@H@std@@2W4_Fmtflags@12@B
CONST	SEGMENT
?adjustfield@?$_Iosb@H@std@@2W4_Fmtflags@12@B DD 01c0H	; std::_Iosb<int>::adjustfield
CONST	ENDS
;	COMDAT ?_Stdio@?$_Iosb@H@std@@2W4_Fmtflags@12@B
CONST	SEGMENT
?_Stdio@?$_Iosb@H@std@@2W4_Fmtflags@12@B DD 08000H	; std::_Iosb<int>::_Stdio
CONST	ENDS
;	COMDAT ?boolalpha@?$_Iosb@H@std@@2W4_Fmtflags@12@B
CONST	SEGMENT
?boolalpha@?$_Iosb@H@std@@2W4_Fmtflags@12@B DD 04000H	; std::_Iosb<int>::boolalpha
CONST	ENDS
;	COMDAT ?hexfloat@?$_Iosb@H@std@@2W4_Fmtflags@12@B
CONST	SEGMENT
?hexfloat@?$_Iosb@H@std@@2W4_Fmtflags@12@B DD 03000H	; std::_Iosb<int>::hexfloat
CONST	ENDS
;	COMDAT ?fixed@?$_Iosb@H@std@@2W4_Fmtflags@12@B
CONST	SEGMENT
?fixed@?$_Iosb@H@std@@2W4_Fmtflags@12@B DD 02000H	; std::_Iosb<int>::fixed
CONST	ENDS
;	COMDAT ?scientific@?$_Iosb@H@std@@2W4_Fmtflags@12@B
CONST	SEGMENT
?scientific@?$_Iosb@H@std@@2W4_Fmtflags@12@B DD 01000H	; std::_Iosb<int>::scientific
CONST	ENDS
;	COMDAT ?hex@?$_Iosb@H@std@@2W4_Fmtflags@12@B
CONST	SEGMENT
?hex@?$_Iosb@H@std@@2W4_Fmtflags@12@B DD 0800H		; std::_Iosb<int>::hex
CONST	ENDS
;	COMDAT ?oct@?$_Iosb@H@std@@2W4_Fmtflags@12@B
CONST	SEGMENT
?oct@?$_Iosb@H@std@@2W4_Fmtflags@12@B DD 0400H		; std::_Iosb<int>::oct
CONST	ENDS
;	COMDAT ?dec@?$_Iosb@H@std@@2W4_Fmtflags@12@B
CONST	SEGMENT
?dec@?$_Iosb@H@std@@2W4_Fmtflags@12@B DD 0200H		; std::_Iosb<int>::dec
CONST	ENDS
;	COMDAT ?internal@?$_Iosb@H@std@@2W4_Fmtflags@12@B
CONST	SEGMENT
?internal@?$_Iosb@H@std@@2W4_Fmtflags@12@B DD 0100H	; std::_Iosb<int>::internal
CONST	ENDS
;	COMDAT ?right@?$_Iosb@H@std@@2W4_Fmtflags@12@B
CONST	SEGMENT
?right@?$_Iosb@H@std@@2W4_Fmtflags@12@B DD 080H		; std::_Iosb<int>::right
CONST	ENDS
;	COMDAT ?left@?$_Iosb@H@std@@2W4_Fmtflags@12@B
CONST	SEGMENT
?left@?$_Iosb@H@std@@2W4_Fmtflags@12@B DD 040H		; std::_Iosb<int>::left
CONST	ENDS
;	COMDAT ?showpos@?$_Iosb@H@std@@2W4_Fmtflags@12@B
CONST	SEGMENT
?showpos@?$_Iosb@H@std@@2W4_Fmtflags@12@B DD 020H	; std::_Iosb<int>::showpos
CONST	ENDS
;	COMDAT ?showpoint@?$_Iosb@H@std@@2W4_Fmtflags@12@B
CONST	SEGMENT
?showpoint@?$_Iosb@H@std@@2W4_Fmtflags@12@B DD 010H	; std::_Iosb<int>::showpoint
CONST	ENDS
;	COMDAT ?showbase@?$_Iosb@H@std@@2W4_Fmtflags@12@B
CONST	SEGMENT
?showbase@?$_Iosb@H@std@@2W4_Fmtflags@12@B DD 08H	; std::_Iosb<int>::showbase
CONST	ENDS
;	COMDAT ?uppercase@?$_Iosb@H@std@@2W4_Fmtflags@12@B
CONST	SEGMENT
?uppercase@?$_Iosb@H@std@@2W4_Fmtflags@12@B DD 04H	; std::_Iosb<int>::uppercase
CONST	ENDS
;	COMDAT ?unitbuf@?$_Iosb@H@std@@2W4_Fmtflags@12@B
CONST	SEGMENT
?unitbuf@?$_Iosb@H@std@@2W4_Fmtflags@12@B DD 02H	; std::_Iosb<int>::unitbuf
CONST	ENDS
;	COMDAT ?skipws@?$_Iosb@H@std@@2W4_Fmtflags@12@B
CONST	SEGMENT
?skipws@?$_Iosb@H@std@@2W4_Fmtflags@12@B DD 01H		; std::_Iosb<int>::skipws
CONST	ENDS
;	COMDAT ?none@?$_Locbase@H@std@@2HB
CONST	SEGMENT
?none@?$_Locbase@H@std@@2HB DD 00H			; std::_Locbase<int>::none
CONST	ENDS
;	COMDAT ?all@?$_Locbase@H@std@@2HB
CONST	SEGMENT
?all@?$_Locbase@H@std@@2HB DD 03fH			; std::_Locbase<int>::all
CONST	ENDS
;	COMDAT ?messages@?$_Locbase@H@std@@2HB
CONST	SEGMENT
?messages@?$_Locbase@H@std@@2HB DD 020H			; std::_Locbase<int>::messages
CONST	ENDS
;	COMDAT ?time@?$_Locbase@H@std@@2HB
CONST	SEGMENT
?time@?$_Locbase@H@std@@2HB DD 010H			; std::_Locbase<int>::time
CONST	ENDS
;	COMDAT ?numeric@?$_Locbase@H@std@@2HB
CONST	SEGMENT
?numeric@?$_Locbase@H@std@@2HB DD 08H			; std::_Locbase<int>::numeric
CONST	ENDS
;	COMDAT ?monetary@?$_Locbase@H@std@@2HB
CONST	SEGMENT
?monetary@?$_Locbase@H@std@@2HB DD 04H			; std::_Locbase<int>::monetary
CONST	ENDS
;	COMDAT ?ctype@?$_Locbase@H@std@@2HB
CONST	SEGMENT
?ctype@?$_Locbase@H@std@@2HB DD 02H			; std::_Locbase<int>::ctype
CONST	ENDS
;	COMDAT ?collate@?$_Locbase@H@std@@2HB
CONST	SEGMENT
?collate@?$_Locbase@H@std@@2HB DD 01H			; std::_Locbase<int>::collate
CONST	ENDS
;	COMDAT ?_Rank@?$_Arithmetic_traits@O@std@@2HB
CONST	SEGMENT
?_Rank@?$_Arithmetic_traits@O@std@@2HB DD 09H		; std::_Arithmetic_traits<long double>::_Rank
CONST	ENDS
;	COMDAT ?_Rank@?$_Arithmetic_traits@N@std@@2HB
CONST	SEGMENT
?_Rank@?$_Arithmetic_traits@N@std@@2HB DD 08H		; std::_Arithmetic_traits<double>::_Rank
CONST	ENDS
;	COMDAT ?_Rank@?$_Arithmetic_traits@M@std@@2HB
CONST	SEGMENT
?_Rank@?$_Arithmetic_traits@M@std@@2HB DD 07H		; std::_Arithmetic_traits<float>::_Rank
CONST	ENDS
;	COMDAT ?_Rank@?$_Arithmetic_traits@_K@std@@2HB
CONST	SEGMENT
?_Rank@?$_Arithmetic_traits@_K@std@@2HB DD 06H		; std::_Arithmetic_traits<unsigned __int64>::_Rank
CONST	ENDS
;	COMDAT ?_Rank@?$_Arithmetic_traits@_J@std@@2HB
CONST	SEGMENT
?_Rank@?$_Arithmetic_traits@_J@std@@2HB DD 06H		; std::_Arithmetic_traits<__int64>::_Rank
CONST	ENDS
;	COMDAT ?_Rank@?$_Arithmetic_traits@K@std@@2HB
CONST	SEGMENT
?_Rank@?$_Arithmetic_traits@K@std@@2HB DD 05H		; std::_Arithmetic_traits<unsigned long>::_Rank
CONST	ENDS
;	COMDAT ?_Rank@?$_Arithmetic_traits@J@std@@2HB
CONST	SEGMENT
?_Rank@?$_Arithmetic_traits@J@std@@2HB DD 05H		; std::_Arithmetic_traits<long>::_Rank
CONST	ENDS
;	COMDAT ?_Rank@?$_Arithmetic_traits@I@std@@2HB
CONST	SEGMENT
?_Rank@?$_Arithmetic_traits@I@std@@2HB DD 04H		; std::_Arithmetic_traits<unsigned int>::_Rank
CONST	ENDS
;	COMDAT ?_Rank@?$_Arithmetic_traits@H@std@@2HB
CONST	SEGMENT
?_Rank@?$_Arithmetic_traits@H@std@@2HB DD 04H		; std::_Arithmetic_traits<int>::_Rank
CONST	ENDS
;	COMDAT ?_Rank@?$_Arithmetic_traits@G@std@@2HB
CONST	SEGMENT
?_Rank@?$_Arithmetic_traits@G@std@@2HB DD 03H		; std::_Arithmetic_traits<unsigned short>::_Rank
CONST	ENDS
;	COMDAT ?_Rank@?$_Arithmetic_traits@F@std@@2HB
CONST	SEGMENT
?_Rank@?$_Arithmetic_traits@F@std@@2HB DD 03H		; std::_Arithmetic_traits<short>::_Rank
CONST	ENDS
;	COMDAT ?_Rank@?$_Arithmetic_traits@E@std@@2HB
CONST	SEGMENT
?_Rank@?$_Arithmetic_traits@E@std@@2HB DD 02H		; std::_Arithmetic_traits<unsigned char>::_Rank
CONST	ENDS
;	COMDAT ?_Rank@?$_Arithmetic_traits@C@std@@2HB
CONST	SEGMENT
?_Rank@?$_Arithmetic_traits@C@std@@2HB DD 02H		; std::_Arithmetic_traits<signed char>::_Rank
CONST	ENDS
;	COMDAT ?_Rank@?$_Arithmetic_traits@D@std@@2HB
CONST	SEGMENT
?_Rank@?$_Arithmetic_traits@D@std@@2HB DD 02H		; std::_Arithmetic_traits<char>::_Rank
CONST	ENDS
;	COMDAT ?_Rank@?$_Arithmetic_traits@_N@std@@2HB
CONST	SEGMENT
?_Rank@?$_Arithmetic_traits@_N@std@@2HB DD 01H		; std::_Arithmetic_traits<bool>::_Rank
CONST	ENDS
;	COMDAT ?value@?$integral_constant@I$0A@@tr1@std@@2IB
CONST	SEGMENT
?value@?$integral_constant@I$0A@@tr1@std@@2IB DD 00H	; std::tr1::integral_constant<unsigned int,0>::value
CONST	ENDS
;	COMDAT ?value@?$integral_constant@_N$00@tr1@std@@2_NB
CONST	SEGMENT
?value@?$integral_constant@_N$00@tr1@std@@2_NB DB 01H	; std::tr1::integral_constant<bool,1>::value
CONST	ENDS
;	COMDAT ?value@?$integral_constant@_N$0A@@tr1@std@@2_NB
CONST	SEGMENT
?value@?$integral_constant@_N$0A@@tr1@std@@2_NB DB 00H	; std::tr1::integral_constant<bool,0>::value
CONST	ENDS
PUBLIC	??_C@_0CH@LMKJBGPL@Select?5next?5exercise?5to?5debug?0?5m@ ; `string'
PUBLIC	??_C@_0BD@NNCHOOFB@Invalid?0?5reselect?6?$AA@	; `string'
PUBLIC	??_C@_0BB@MECCMDLN@Fare?5thee?5well?$CB?6?$AA@	; `string'
PUBLIC	?ch7_ex10@@YAXXZ				; ch7_ex10
PUBLIC	?ch7_ex9@@YAXXZ					; ch7_ex9
PUBLIC	?ch7_ex8@@YAXXZ					; ch7_ex8
PUBLIC	?ch7_ex7@@YAXXZ					; ch7_ex7
PUBLIC	?ch7_ex6@@YAXXZ					; ch7_ex6
PUBLIC	?ch7_ex5@@YAXXZ					; ch7_ex5
PUBLIC	?ch7_ex4@@YAXXZ					; ch7_ex4
PUBLIC	?ch7_ex3@@YAXH@Z				; ch7_ex3
PUBLIC	??_C@_0CB@NNMNFDDL@Pass?5by?5?$CI1?$CJValue?5or?5?$CI2?$CJAddress?3?5@ ; `string'
PUBLIC	?ch7_ex2@@YAXXZ					; ch7_ex2
PUBLIC	?ch7_ex1@@YAXXZ					; ch7_ex1
PUBLIC	??$?6U?$char_traits@D@std@@@std@@YAAAV?$basic_ostream@DU?$char_traits@D@std@@@0@AAV10@PBD@Z ; std::operator<<<std::char_traits<char> >
PUBLIC	??_C@_0CC@JLLNEAGF@Select?5exercise?5to?5debug?0?5chump?3@ ; `string'
PUBLIC	_main
EXTRN	__imp_??Bios_base@std@@QBEPAXXZ:PROC
EXTRN	__imp_??5?$basic_istream@DU?$char_traits@D@std@@@std@@QAEAAV01@AAH@Z:PROC
EXTRN	__imp_?cin@std@@3V?$basic_istream@DU?$char_traits@D@std@@@1@A:BYTE
EXTRN	__imp_?cout@std@@3V?$basic_ostream@DU?$char_traits@D@std@@@1@A:BYTE
EXTRN	@_RTC_CheckStackVars@8:PROC
EXTRN	__RTC_CheckEsp:PROC
EXTRN	__RTC_Shutdown:PROC
EXTRN	__RTC_InitBase:PROC
;	COMDAT ??_C@_0CH@LMKJBGPL@Select?5next?5exercise?5to?5debug?0?5m@
; File d:\tools\dev\workspace\vs2010\projects\cpprimer\cpprimer\ch7_exall.cpp
CONST	SEGMENT
??_C@_0CH@LMKJBGPL@Select?5next?5exercise?5to?5debug?0?5m@ DB 'Select nex'
	DB	't exercise to debug, merci: ', 00H		; `string'
CONST	ENDS
;	COMDAT ??_C@_0BD@NNCHOOFB@Invalid?0?5reselect?6?$AA@
CONST	SEGMENT
??_C@_0BD@NNCHOOFB@Invalid?0?5reselect?6?$AA@ DB 'Invalid, reselect', 0aH
	DB	00H						; `string'
CONST	ENDS
;	COMDAT ??_C@_0BB@MECCMDLN@Fare?5thee?5well?$CB?6?$AA@
CONST	SEGMENT
??_C@_0BB@MECCMDLN@Fare?5thee?5well?$CB?6?$AA@ DB 'Fare thee well!', 0aH, 00H ; `string'
CONST	ENDS
;	COMDAT ??_C@_0CB@NNMNFDDL@Pass?5by?5?$CI1?$CJValue?5or?5?$CI2?$CJAddress?3?5@
CONST	SEGMENT
??_C@_0CB@NNMNFDDL@Pass?5by?5?$CI1?$CJValue?5or?5?$CI2?$CJAddress?3?5@ DB 'P'
	DB	'ass by (1)Value or (2)Address: ', 00H	; `string'
CONST	ENDS
;	COMDAT ??_C@_0CC@JLLNEAGF@Select?5exercise?5to?5debug?0?5chump?3@
CONST	SEGMENT
??_C@_0CC@JLLNEAGF@Select?5exercise?5to?5debug?0?5chump?3@ DB 'Select exe'
	DB	'rcise to debug, chump: ', 00H		; `string'
CONST	ENDS
;	COMDAT rtc$TMZ
rtc$TMZ	SEGMENT
__RTC_Shutdown.rtc$TMZ DD FLAT:__RTC_Shutdown
rtc$TMZ	ENDS
;	COMDAT rtc$IMZ
rtc$IMZ	SEGMENT
__RTC_InitBase.rtc$IMZ DD FLAT:__RTC_InitBase
; Function compile flags: /Odtp /RTCsu /ZI
rtc$IMZ	ENDS
;	COMDAT _main
_TEXT	SEGMENT
tv81 = -232						; size = 4
$T31007 = -224						; size = 4
_choice$23441 = -20					; size = 4
_chapter$ = -8						; size = 4
_main	PROC						; COMDAT

; 20   : {

	push	ebp
	mov	ebp, esp
	sub	esp, 232				; 000000e8H
	push	ebx
	push	esi
	push	edi
	lea	edi, DWORD PTR [ebp-232]
	mov	ecx, 58					; 0000003aH
	mov	eax, -858993460				; ccccccccH
	rep stosd

; 21   : 	int chapter;
; 22   : 
; 23   : 	cout << "Select exercise to debug, chump: ";

	push	OFFSET ??_C@_0CC@JLLNEAGF@Select?5exercise?5to?5debug?0?5chump?3@
	mov	eax, DWORD PTR __imp_?cout@std@@3V?$basic_ostream@DU?$char_traits@D@std@@@1@A
	push	eax
	call	??$?6U?$char_traits@D@std@@@std@@YAAAV?$basic_ostream@DU?$char_traits@D@std@@@0@AAV10@PBD@Z ; std::operator<<<std::char_traits<char> >
	add	esp, 8
$LN16@main:

; 24   : 
; 25   : 	while (cin >> chapter)

	mov	esi, esp
	lea	eax, DWORD PTR _chapter$[ebp]
	push	eax
	mov	ecx, DWORD PTR __imp_?cin@std@@3V?$basic_istream@DU?$char_traits@D@std@@@1@A
	call	DWORD PTR __imp_??5?$basic_istream@DU?$char_traits@D@std@@@std@@QAEAAV01@AAH@Z
	cmp	esi, esp
	call	__RTC_CheckEsp
	mov	DWORD PTR $T31007[ebp], eax
	mov	ecx, DWORD PTR $T31007[ebp]
	mov	edx, DWORD PTR [ecx]
	mov	ecx, DWORD PTR $T31007[ebp]
	add	ecx, DWORD PTR [edx+4]
	mov	esi, esp
	call	DWORD PTR __imp_??Bios_base@std@@QBEPAXXZ
	cmp	esi, esp
	call	__RTC_CheckEsp
	test	eax, eax
	je	$LN15@main

; 26   : 	{
; 27   : 		switch (chapter)

	mov	eax, DWORD PTR _chapter$[ebp]
	mov	DWORD PTR tv81[ebp], eax
	mov	ecx, DWORD PTR tv81[ebp]
	sub	ecx, 1
	mov	DWORD PTR tv81[ebp], ecx
	cmp	DWORD PTR tv81[ebp], 112		; 00000070H
	ja	$LN1@main
	mov	edx, DWORD PTR tv81[ebp]
	movzx	eax, BYTE PTR $LN19@main[edx]
	jmp	DWORD PTR $LN24@main[eax*4]
$LN12@main:

; 28   : 		{
; 29   : 			case 1: ch7_ex1(); break;

	call	?ch7_ex1@@YAXXZ				; ch7_ex1
	jmp	$LN13@main
$LN11@main:

; 30   : 			case 2: ch7_ex2(); break;

	call	?ch7_ex2@@YAXXZ				; ch7_ex2
	jmp	$LN13@main
$LN10@main:

; 31   : 			case 3: 
; 32   : 				{
; 33   : 					int choice;
; 34   : 					cout << "Pass by (1)Value or (2)Address: ";

	push	OFFSET ??_C@_0CB@NNMNFDDL@Pass?5by?5?$CI1?$CJValue?5or?5?$CI2?$CJAddress?3?5@
	mov	eax, DWORD PTR __imp_?cout@std@@3V?$basic_ostream@DU?$char_traits@D@std@@@1@A
	push	eax
	call	??$?6U?$char_traits@D@std@@@std@@YAAAV?$basic_ostream@DU?$char_traits@D@std@@@0@AAV10@PBD@Z ; std::operator<<<std::char_traits<char> >
	add	esp, 8

; 35   : 					cin >> choice;

	mov	esi, esp
	lea	eax, DWORD PTR _choice$23441[ebp]
	push	eax
	mov	ecx, DWORD PTR __imp_?cin@std@@3V?$basic_istream@DU?$char_traits@D@std@@@1@A
	call	DWORD PTR __imp_??5?$basic_istream@DU?$char_traits@D@std@@@std@@QAEAAV01@AAH@Z
	cmp	esi, esp
	call	__RTC_CheckEsp

; 36   : 					ch7_ex3(choice); 

	mov	eax, DWORD PTR _choice$23441[ebp]
	push	eax
	call	?ch7_ex3@@YAXH@Z			; ch7_ex3
	add	esp, 4

; 37   : 					break;

	jmp	SHORT $LN13@main
$LN9@main:

; 38   : 				}
; 39   : 			case 4: ch7_ex4(); break;

	call	?ch7_ex4@@YAXXZ				; ch7_ex4
	jmp	SHORT $LN13@main
$LN8@main:

; 40   : 			case 5: ch7_ex5(); break;

	call	?ch7_ex5@@YAXXZ				; ch7_ex5
	jmp	SHORT $LN13@main
$LN7@main:

; 41   : 			case 6: ch7_ex6(); break;

	call	?ch7_ex6@@YAXXZ				; ch7_ex6
	jmp	SHORT $LN13@main
$LN6@main:

; 42   : 			case 7: ch7_ex7(); break;

	call	?ch7_ex7@@YAXXZ				; ch7_ex7
	jmp	SHORT $LN13@main
$LN5@main:

; 43   : 			case 8: ch7_ex8(); break;

	call	?ch7_ex8@@YAXXZ				; ch7_ex8
	jmp	SHORT $LN13@main
$LN4@main:

; 44   : 			case 9: ch7_ex9(); break;

	call	?ch7_ex9@@YAXXZ				; ch7_ex9
	jmp	SHORT $LN13@main
$LN3@main:

; 45   : 			case 10: ch7_ex10(); break;

	call	?ch7_ex10@@YAXXZ			; ch7_ex10
	jmp	SHORT $LN13@main
$LN2@main:

; 46   : 			case 'q':
; 47   : 			case 'Q': cout << "Fare thee well!\n"; break;

	push	OFFSET ??_C@_0BB@MECCMDLN@Fare?5thee?5well?$CB?6?$AA@
	mov	eax, DWORD PTR __imp_?cout@std@@3V?$basic_ostream@DU?$char_traits@D@std@@@1@A
	push	eax
	call	??$?6U?$char_traits@D@std@@@std@@YAAAV?$basic_ostream@DU?$char_traits@D@std@@@0@AAV10@PBD@Z ; std::operator<<<std::char_traits<char> >
	add	esp, 8
	jmp	SHORT $LN13@main
$LN1@main:

; 48   : 			default : cout << "Invalid, reselect\n";

	push	OFFSET ??_C@_0BD@NNCHOOFB@Invalid?0?5reselect?6?$AA@
	mov	eax, DWORD PTR __imp_?cout@std@@3V?$basic_ostream@DU?$char_traits@D@std@@@1@A
	push	eax
	call	??$?6U?$char_traits@D@std@@@std@@YAAAV?$basic_ostream@DU?$char_traits@D@std@@@0@AAV10@PBD@Z ; std::operator<<<std::char_traits<char> >
	add	esp, 8
$LN13@main:

; 49   : 		}
; 50   : 		cout << "Select next exercise to debug, merci: ";

	push	OFFSET ??_C@_0CH@LMKJBGPL@Select?5next?5exercise?5to?5debug?0?5m@
	mov	eax, DWORD PTR __imp_?cout@std@@3V?$basic_ostream@DU?$char_traits@D@std@@@1@A
	push	eax
	call	??$?6U?$char_traits@D@std@@@std@@YAAAV?$basic_ostream@DU?$char_traits@D@std@@@0@AAV10@PBD@Z ; std::operator<<<std::char_traits<char> >
	add	esp, 8

; 51   : 	}	

	jmp	$LN16@main
$LN15@main:

; 52   : 	return 0;

	xor	eax, eax

; 53   : }

	push	edx
	mov	ecx, ebp
	push	eax
	lea	edx, DWORD PTR $LN23@main
	call	@_RTC_CheckStackVars@8
	pop	eax
	pop	edx
	pop	edi
	pop	esi
	pop	ebx
	add	esp, 232				; 000000e8H
	cmp	ebp, esp
	call	__RTC_CheckEsp
	mov	esp, ebp
	pop	ebp
	ret	0
	npad	1
$LN23@main:
	DD	2
	DD	$LN22@main
$LN22@main:
	DD	-8					; fffffff8H
	DD	4
	DD	$LN20@main
	DD	-20					; ffffffecH
	DD	4
	DD	$LN21@main
$LN21@main:
	DB	99					; 00000063H
	DB	104					; 00000068H
	DB	111					; 0000006fH
	DB	105					; 00000069H
	DB	99					; 00000063H
	DB	101					; 00000065H
	DB	0
$LN20@main:
	DB	99					; 00000063H
	DB	104					; 00000068H
	DB	97					; 00000061H
	DB	112					; 00000070H
	DB	116					; 00000074H
	DB	101					; 00000065H
	DB	114					; 00000072H
	DB	0
	npad	1
$LN24@main:
	DD	$LN12@main
	DD	$LN11@main
	DD	$LN10@main
	DD	$LN9@main
	DD	$LN8@main
	DD	$LN7@main
	DD	$LN6@main
	DD	$LN5@main
	DD	$LN4@main
	DD	$LN3@main
	DD	$LN2@main
	DD	$LN1@main
$LN19@main:
	DB	0
	DB	1
	DB	2
	DB	3
	DB	4
	DB	5
	DB	6
	DB	7
	DB	8
	DB	9
	DB	11					; 0000000bH
	DB	11					; 0000000bH
	DB	11					; 0000000bH
	DB	11					; 0000000bH
	DB	11					; 0000000bH
	DB	11					; 0000000bH
	DB	11					; 0000000bH
	DB	11					; 0000000bH
	DB	11					; 0000000bH
	DB	11					; 0000000bH
	DB	11					; 0000000bH
	DB	11					; 0000000bH
	DB	11					; 0000000bH
	DB	11					; 0000000bH
	DB	11					; 0000000bH
	DB	11					; 0000000bH
	DB	11					; 0000000bH
	DB	11					; 0000000bH
	DB	11					; 0000000bH
	DB	11					; 0000000bH
	DB	11					; 0000000bH
	DB	11					; 0000000bH
	DB	11					; 0000000bH
	DB	11					; 0000000bH
	DB	11					; 0000000bH
	DB	11					; 0000000bH
	DB	11					; 0000000bH
	DB	11					; 0000000bH
	DB	11					; 0000000bH
	DB	11					; 0000000bH
	DB	11					; 0000000bH
	DB	11					; 0000000bH
	DB	11					; 0000000bH
	DB	11					; 0000000bH
	DB	11					; 0000000bH
	DB	11					; 0000000bH
	DB	11					; 0000000bH
	DB	11					; 0000000bH
	DB	11					; 0000000bH
	DB	11					; 0000000bH
	DB	11					; 0000000bH
	DB	11					; 0000000bH
	DB	11					; 0000000bH
	DB	11					; 0000000bH
	DB	11					; 0000000bH
	DB	11					; 0000000bH
	DB	11					; 0000000bH
	DB	11					; 0000000bH
	DB	11					; 0000000bH
	DB	11					; 0000000bH
	DB	11					; 0000000bH
	DB	11					; 0000000bH
	DB	11					; 0000000bH
	DB	11					; 0000000bH
	DB	11					; 0000000bH
	DB	11					; 0000000bH
	DB	11					; 0000000bH
	DB	11					; 0000000bH
	DB	11					; 0000000bH
	DB	11					; 0000000bH
	DB	11					; 0000000bH
	DB	11					; 0000000bH
	DB	11					; 0000000bH
	DB	11					; 0000000bH
	DB	11					; 0000000bH
	DB	11					; 0000000bH
	DB	11					; 0000000bH
	DB	11					; 0000000bH
	DB	11					; 0000000bH
	DB	11					; 0000000bH
	DB	10					; 0000000aH
	DB	11					; 0000000bH
	DB	11					; 0000000bH
	DB	11					; 0000000bH
	DB	11					; 0000000bH
	DB	11					; 0000000bH
	DB	11					; 0000000bH
	DB	11					; 0000000bH
	DB	11					; 0000000bH
	DB	11					; 0000000bH
	DB	11					; 0000000bH
	DB	11					; 0000000bH
	DB	11					; 0000000bH
	DB	11					; 0000000bH
	DB	11					; 0000000bH
	DB	11					; 0000000bH
	DB	11					; 0000000bH
	DB	11					; 0000000bH
	DB	11					; 0000000bH
	DB	11					; 0000000bH
	DB	11					; 0000000bH
	DB	11					; 0000000bH
	DB	11					; 0000000bH
	DB	11					; 0000000bH
	DB	11					; 0000000bH
	DB	11					; 0000000bH
	DB	11					; 0000000bH
	DB	11					; 0000000bH
	DB	11					; 0000000bH
	DB	11					; 0000000bH
	DB	11					; 0000000bH
	DB	11					; 0000000bH
	DB	10					; 0000000aH
_main	ENDP
_TEXT	ENDS
PUBLIC	??_C@_0BO@MMJKFGBI@Bring?5harmony?5to?5the?5digits?3?5?$AA@ ; `string'
PUBLIC	??_C@_0BA@KAAKCAGP@Harmonic?5Mean?3?5?$AA@	; `string'
PUBLIC	?harmony@@YANNN@Z				; harmony
PUBLIC	__real@0000000000000000
PUBLIC	??_C@_0CO@IEFDGGAD@Enter?5two?5values?5to?5be?5evaluated@ ; `string'
EXTRN	__imp_??6?$basic_ostream@DU?$char_traits@D@std@@@std@@QAEAAV01@P6AAAV01@AAV01@@Z@Z:PROC
EXTRN	__imp_??6?$basic_ostream@DU?$char_traits@D@std@@@std@@QAEAAV01@N@Z:PROC
EXTRN	__imp_?endl@std@@YAAAV?$basic_ostream@DU?$char_traits@D@std@@@1@AAV21@@Z:PROC
EXTRN	__imp_??5?$basic_istream@DU?$char_traits@D@std@@@std@@QAEAAV01@AAN@Z:PROC
EXTRN	__fltused:DWORD
;	COMDAT ??_C@_0BO@MMJKFGBI@Bring?5harmony?5to?5the?5digits?3?5?$AA@
CONST	SEGMENT
??_C@_0BO@MMJKFGBI@Bring?5harmony?5to?5the?5digits?3?5?$AA@ DB 'Bring har'
	DB	'mony to the digits: ', 00H			; `string'
CONST	ENDS
;	COMDAT ??_C@_0BA@KAAKCAGP@Harmonic?5Mean?3?5?$AA@
CONST	SEGMENT
??_C@_0BA@KAAKCAGP@Harmonic?5Mean?3?5?$AA@ DB 'Harmonic Mean: ', 00H ; `string'
CONST	ENDS
;	COMDAT __real@0000000000000000
CONST	SEGMENT
__real@0000000000000000 DQ 00000000000000000r	; 0
CONST	ENDS
;	COMDAT ??_C@_0CO@IEFDGGAD@Enter?5two?5values?5to?5be?5evaluated@
CONST	SEGMENT
??_C@_0CO@IEFDGGAD@Enter?5two?5values?5to?5be?5evaluated@ DB 'Enter two v'
	DB	'alues to be evaluated to harmony: ', 00H	; `string'
; Function compile flags: /Odtp /RTCsu /ZI
CONST	ENDS
;	COMDAT ?ch7_ex1@@YAXXZ
_TEXT	SEGMENT
$T31026 = -248						; size = 4
_mean$23477 = -44					; size = 8
_yval$ = -28						; size = 8
_xval$ = -12						; size = 8
?ch7_ex1@@YAXXZ PROC					; ch7_ex1, COMDAT

; 57   : {

	push	ebp
	mov	ebp, esp
	sub	esp, 252				; 000000fcH
	push	ebx
	push	esi
	push	edi
	lea	edi, DWORD PTR [ebp-252]
	mov	ecx, 63					; 0000003fH
	mov	eax, -858993460				; ccccccccH
	rep stosd

; 58   : 	double xval, yval;
; 59   : 	
; 60   : 	cout << "Enter two values to be evaluated to harmony: ";

	push	OFFSET ??_C@_0CO@IEFDGGAD@Enter?5two?5values?5to?5be?5evaluated@
	mov	eax, DWORD PTR __imp_?cout@std@@3V?$basic_ostream@DU?$char_traits@D@std@@@1@A
	push	eax
	call	??$?6U?$char_traits@D@std@@@std@@YAAAV?$basic_ostream@DU?$char_traits@D@std@@@0@AAV10@PBD@Z ; std::operator<<<std::char_traits<char> >
	add	esp, 8
$LN3@ch7_ex1:

; 61   : 	while ((cin >> xval >> yval))

	mov	esi, esp
	lea	eax, DWORD PTR _yval$[ebp]
	push	eax
	mov	edi, esp
	lea	ecx, DWORD PTR _xval$[ebp]
	push	ecx
	mov	ecx, DWORD PTR __imp_?cin@std@@3V?$basic_istream@DU?$char_traits@D@std@@@1@A
	call	DWORD PTR __imp_??5?$basic_istream@DU?$char_traits@D@std@@@std@@QAEAAV01@AAN@Z
	cmp	edi, esp
	call	__RTC_CheckEsp
	mov	ecx, eax
	call	DWORD PTR __imp_??5?$basic_istream@DU?$char_traits@D@std@@@std@@QAEAAV01@AAN@Z
	cmp	esi, esp
	call	__RTC_CheckEsp
	mov	DWORD PTR $T31026[ebp], eax
	mov	edx, DWORD PTR $T31026[ebp]
	mov	eax, DWORD PTR [edx]
	mov	ecx, DWORD PTR $T31026[ebp]
	add	ecx, DWORD PTR [eax+4]
	mov	esi, esp
	call	DWORD PTR __imp_??Bios_base@std@@QBEPAXXZ
	cmp	esi, esp
	call	__RTC_CheckEsp
	test	eax, eax
	je	$LN2@ch7_ex1

; 62   : 	{
; 63   : 		if (xval == 0 && yval == 0)

	fld	QWORD PTR _xval$[ebp]
	fldz
	fucompp
	fnstsw	ax
	test	ah, 68					; 00000044H
	jp	SHORT $LN1@ch7_ex1
	fld	QWORD PTR _yval$[ebp]
	fldz
	fucompp
	fnstsw	ax
	test	ah, 68					; 00000044H
	jp	SHORT $LN1@ch7_ex1

; 64   : 			break;

	jmp	SHORT $LN2@ch7_ex1
$LN1@ch7_ex1:

; 65   : 
; 66   : 		double mean = harmony(xval, yval);

	sub	esp, 8
	fld	QWORD PTR _yval$[ebp]
	fstp	QWORD PTR [esp]
	sub	esp, 8
	fld	QWORD PTR _xval$[ebp]
	fstp	QWORD PTR [esp]
	call	?harmony@@YANNN@Z			; harmony
	add	esp, 16					; 00000010H
	fstp	QWORD PTR _mean$23477[ebp]

; 67   : 
; 68   : 		cout << "Harmonic Mean: " << mean << endl;

	mov	esi, esp
	mov	eax, DWORD PTR __imp_?endl@std@@YAAAV?$basic_ostream@DU?$char_traits@D@std@@@1@AAV21@@Z
	push	eax
	mov	edi, esp
	sub	esp, 8
	fld	QWORD PTR _mean$23477[ebp]
	fstp	QWORD PTR [esp]
	push	OFFSET ??_C@_0BA@KAAKCAGP@Harmonic?5Mean?3?5?$AA@
	mov	ecx, DWORD PTR __imp_?cout@std@@3V?$basic_ostream@DU?$char_traits@D@std@@@1@A
	push	ecx
	call	??$?6U?$char_traits@D@std@@@std@@YAAAV?$basic_ostream@DU?$char_traits@D@std@@@0@AAV10@PBD@Z ; std::operator<<<std::char_traits<char> >
	add	esp, 8
	mov	ecx, eax
	call	DWORD PTR __imp_??6?$basic_ostream@DU?$char_traits@D@std@@@std@@QAEAAV01@N@Z
	cmp	edi, esp
	call	__RTC_CheckEsp
	mov	ecx, eax
	call	DWORD PTR __imp_??6?$basic_ostream@DU?$char_traits@D@std@@@std@@QAEAAV01@P6AAAV01@AAV01@@Z@Z
	cmp	esi, esp
	call	__RTC_CheckEsp

; 69   : 		cout << "Bring harmony to the digits: ";

	push	OFFSET ??_C@_0BO@MMJKFGBI@Bring?5harmony?5to?5the?5digits?3?5?$AA@
	mov	eax, DWORD PTR __imp_?cout@std@@3V?$basic_ostream@DU?$char_traits@D@std@@@1@A
	push	eax
	call	??$?6U?$char_traits@D@std@@@std@@YAAAV?$basic_ostream@DU?$char_traits@D@std@@@0@AAV10@PBD@Z ; std::operator<<<std::char_traits<char> >
	add	esp, 8

; 70   : 	}

	jmp	$LN3@ch7_ex1
$LN2@ch7_ex1:

; 71   : }

	push	edx
	mov	ecx, ebp
	push	eax
	lea	edx, DWORD PTR $LN9@ch7_ex1
	call	@_RTC_CheckStackVars@8
	pop	eax
	pop	edx
	pop	edi
	pop	esi
	pop	ebx
	add	esp, 252				; 000000fcH
	cmp	ebp, esp
	call	__RTC_CheckEsp
	mov	esp, ebp
	pop	ebp
	ret	0
	npad	2
$LN9@ch7_ex1:
	DD	2
	DD	$LN8@ch7_ex1
$LN8@ch7_ex1:
	DD	-12					; fffffff4H
	DD	8
	DD	$LN6@ch7_ex1
	DD	-28					; ffffffe4H
	DD	8
	DD	$LN7@ch7_ex1
$LN7@ch7_ex1:
	DB	121					; 00000079H
	DB	118					; 00000076H
	DB	97					; 00000061H
	DB	108					; 0000006cH
	DB	0
$LN6@ch7_ex1:
	DB	120					; 00000078H
	DB	118					; 00000076H
	DB	97					; 00000061H
	DB	108					; 0000006cH
	DB	0
?ch7_ex1@@YAXXZ ENDP					; ch7_ex1
_TEXT	ENDS
PUBLIC	??_C@_01IPJKGB@?$CD?$AA@			; `string'
PUBLIC	??_C@_02LMMGGCAJ@?3?5?$AA@			; `string'
PUBLIC	?golfread@@YAPAHH@Z				; golfread
EXTRN	__imp_??6?$basic_ostream@DU?$char_traits@D@std@@@std@@QAEAAV01@H@Z:PROC
;	COMDAT ??_C@_01IPJKGB@?$CD?$AA@
CONST	SEGMENT
??_C@_01IPJKGB@?$CD?$AA@ DB '#', 00H			; `string'
CONST	ENDS
;	COMDAT ??_C@_02LMMGGCAJ@?3?5?$AA@
CONST	SEGMENT
??_C@_02LMMGGCAJ@?3?5?$AA@ DB ': ', 00H			; `string'
; Function compile flags: /Odtp /RTCsu /ZI
CONST	ENDS
;	COMDAT ?ch7_ex2@@YAXXZ
_TEXT	SEGMENT
_x$23508 = -32						; size = 4
_values$ = -20						; size = 4
_arsize$ = -8						; size = 4
?ch7_ex2@@YAXXZ PROC					; ch7_ex2, COMDAT

; 73   : {

	push	ebp
	mov	ebp, esp
	sub	esp, 228				; 000000e4H
	push	ebx
	push	esi
	push	edi
	lea	edi, DWORD PTR [ebp-228]
	mov	ecx, 57					; 00000039H
	mov	eax, -858993460				; ccccccccH
	rep stosd

; 74   : 	const int arsize = 10;

	mov	DWORD PTR _arsize$[ebp], 10		; 0000000aH

; 75   : 
; 76   : 	int * values = golfread(arsize);

	push	10					; 0000000aH
	call	?golfread@@YAPAHH@Z			; golfread
	add	esp, 4
	mov	DWORD PTR _values$[ebp], eax

; 77   : 
; 78   : 	for (int x = 0; x < arsize; x++)

	mov	DWORD PTR _x$23508[ebp], 0
	jmp	SHORT $LN3@ch7_ex2
$LN2@ch7_ex2:
	mov	eax, DWORD PTR _x$23508[ebp]
	add	eax, 1
	mov	DWORD PTR _x$23508[ebp], eax
$LN3@ch7_ex2:
	cmp	DWORD PTR _x$23508[ebp], 10		; 0000000aH
	jge	SHORT $LN4@ch7_ex2

; 79   : 		cout << "#" << x+1 << ": " << values[x] << endl;

	mov	esi, esp
	mov	eax, DWORD PTR __imp_?endl@std@@YAAAV?$basic_ostream@DU?$char_traits@D@std@@@1@AAV21@@Z
	push	eax
	mov	edi, esp
	mov	ecx, DWORD PTR _x$23508[ebp]
	mov	edx, DWORD PTR _values$[ebp]
	mov	eax, DWORD PTR [edx+ecx*4]
	push	eax
	push	OFFSET ??_C@_02LMMGGCAJ@?3?5?$AA@
	mov	ecx, DWORD PTR _x$23508[ebp]
	add	ecx, 1
	mov	ebx, esp
	push	ecx
	push	OFFSET ??_C@_01IPJKGB@?$CD?$AA@
	mov	edx, DWORD PTR __imp_?cout@std@@3V?$basic_ostream@DU?$char_traits@D@std@@@1@A
	push	edx
	call	??$?6U?$char_traits@D@std@@@std@@YAAAV?$basic_ostream@DU?$char_traits@D@std@@@0@AAV10@PBD@Z ; std::operator<<<std::char_traits<char> >
	add	esp, 8
	mov	ecx, eax
	call	DWORD PTR __imp_??6?$basic_ostream@DU?$char_traits@D@std@@@std@@QAEAAV01@H@Z
	cmp	ebx, esp
	call	__RTC_CheckEsp
	push	eax
	call	??$?6U?$char_traits@D@std@@@std@@YAAAV?$basic_ostream@DU?$char_traits@D@std@@@0@AAV10@PBD@Z ; std::operator<<<std::char_traits<char> >
	add	esp, 8
	mov	ecx, eax
	call	DWORD PTR __imp_??6?$basic_ostream@DU?$char_traits@D@std@@@std@@QAEAAV01@H@Z
	cmp	edi, esp
	call	__RTC_CheckEsp
	mov	ecx, eax
	call	DWORD PTR __imp_??6?$basic_ostream@DU?$char_traits@D@std@@@std@@QAEAAV01@P6AAAV01@AAV01@@Z@Z
	cmp	esi, esp
	call	__RTC_CheckEsp
	jmp	SHORT $LN2@ch7_ex2
$LN4@ch7_ex2:

; 80   : }

	pop	edi
	pop	esi
	pop	ebx
	add	esp, 228				; 000000e4H
	cmp	ebp, esp
	call	__RTC_CheckEsp
	mov	esp, ebp
	pop	ebp
	ret	0
?ch7_ex2@@YAXXZ ENDP					; ch7_ex2
_TEXT	ENDS
PUBLIC	??_C@_0BB@PBFHBIMO@Constructed?5by?3?7?$AA@	; `string'
PUBLIC	??_C@_09KPCJIOPG@Height?3?7?7?$AA@		; `string'
PUBLIC	??_C@_08MHOMPPNA@Width?3?7?7?$AA@		; `string'
PUBLIC	??_C@_09HNADJPPG@Length?3?7?7?$AA@		; `string'
PUBLIC	??_C@_09LGIMBJDB@Volume?3?7?7?$AA@		; `string'
PUBLIC	??_C@_0BM@IKHFKFPF@Box?5struct?5passed?5by?5value?6?$AA@ ; `string'
PUBLIC	?vshowbox@@YAHUbox@@@Z				; vshowbox
EXTRN	__imp_??6?$basic_ostream@DU?$char_traits@D@std@@@std@@QAEAAV01@M@Z:PROC
;	COMDAT ??_C@_0BB@PBFHBIMO@Constructed?5by?3?7?$AA@
CONST	SEGMENT
??_C@_0BB@PBFHBIMO@Constructed?5by?3?7?$AA@ DB 'Constructed by:', 09H, 00H ; `string'
CONST	ENDS
;	COMDAT ??_C@_09KPCJIOPG@Height?3?7?7?$AA@
CONST	SEGMENT
??_C@_09KPCJIOPG@Height?3?7?7?$AA@ DB 'Height:', 09H, 09H, 00H ; `string'
CONST	ENDS
;	COMDAT ??_C@_08MHOMPPNA@Width?3?7?7?$AA@
CONST	SEGMENT
??_C@_08MHOMPPNA@Width?3?7?7?$AA@ DB 'Width:', 09H, 09H, 00H ; `string'
CONST	ENDS
;	COMDAT ??_C@_09HNADJPPG@Length?3?7?7?$AA@
CONST	SEGMENT
??_C@_09HNADJPPG@Length?3?7?7?$AA@ DB 'Length:', 09H, 09H, 00H ; `string'
CONST	ENDS
;	COMDAT ??_C@_09LGIMBJDB@Volume?3?7?7?$AA@
CONST	SEGMENT
??_C@_09LGIMBJDB@Volume?3?7?7?$AA@ DB 'Volume:', 09H, 09H, 00H ; `string'
CONST	ENDS
;	COMDAT ??_C@_0BM@IKHFKFPF@Box?5struct?5passed?5by?5value?6?$AA@
CONST	SEGMENT
??_C@_0BM@IKHFKFPF@Box?5struct?5passed?5by?5value?6?$AA@ DB 'Box struct p'
	DB	'assed by value', 0aH, 00H			; `string'
; Function compile flags: /Odtp /RTCsu /ZI
CONST	ENDS
;	COMDAT ?vshowbox@@YAHUbox@@@Z
_TEXT	SEGMENT
tv201 = -228						; size = 4
tv199 = -224						; size = 4
tv197 = -220						; size = 4
tv195 = -216						; size = 4
tv193 = -212						; size = 4
tv191 = -208						; size = 4
_byval$ = 8						; size = 56
?vshowbox@@YAHUbox@@@Z PROC				; vshowbox, COMDAT

; 91   : {

	push	ebp
	mov	ebp, esp
	sub	esp, 228				; 000000e4H
	push	ebx
	push	esi
	push	edi
	lea	edi, DWORD PTR [ebp-228]
	mov	ecx, 57					; 00000039H
	mov	eax, -858993460				; ccccccccH
	rep stosd

; 92   : 	cout << "Box struct passed by value\n";

	push	OFFSET ??_C@_0BM@IKHFKFPF@Box?5struct?5passed?5by?5value?6?$AA@
	mov	eax, DWORD PTR __imp_?cout@std@@3V?$basic_ostream@DU?$char_traits@D@std@@@1@A
	push	eax
	call	??$?6U?$char_traits@D@std@@@std@@YAAAV?$basic_ostream@DU?$char_traits@D@std@@@0@AAV10@PBD@Z ; std::operator<<<std::char_traits<char> >
	add	esp, 8

; 93   : 	cout << "Constructed by:\t" << byval.maker << endl
; 94   : 		 << "Height:\t\t" << byval.height << endl
; 95   : 		 << "Width:\t\t" << byval.width << endl
; 96   : 		 << "Length:\t\t" << byval.length << endl
; 97   : 		 << "Volume:\t\t" << byval.volume << endl;

	mov	esi, esp
	mov	eax, DWORD PTR __imp_?endl@std@@YAAAV?$basic_ostream@DU?$char_traits@D@std@@@1@AAV21@@Z
	push	eax
	mov	edi, esp
	push	ecx
	fld	DWORD PTR _byval$[ebp+52]
	fstp	DWORD PTR [esp]
	push	OFFSET ??_C@_09LGIMBJDB@Volume?3?7?7?$AA@
	mov	ebx, esp
	mov	ecx, DWORD PTR __imp_?endl@std@@YAAAV?$basic_ostream@DU?$char_traits@D@std@@@1@AAV21@@Z
	push	ecx
	mov	eax, esp
	push	ecx
	fld	DWORD PTR _byval$[ebp+48]
	fstp	DWORD PTR [esp]
	push	OFFSET ??_C@_09HNADJPPG@Length?3?7?7?$AA@
	mov	ecx, esp
	mov	edx, DWORD PTR __imp_?endl@std@@YAAAV?$basic_ostream@DU?$char_traits@D@std@@@1@AAV21@@Z
	push	edx
	mov	edx, esp
	push	ecx
	fld	DWORD PTR _byval$[ebp+44]
	fstp	DWORD PTR [esp]
	push	OFFSET ??_C@_08MHOMPPNA@Width?3?7?7?$AA@
	mov	DWORD PTR tv191[ebp], esi
	mov	esi, esp
	mov	DWORD PTR tv193[ebp], edi
	mov	edi, DWORD PTR __imp_?endl@std@@YAAAV?$basic_ostream@DU?$char_traits@D@std@@@1@AAV21@@Z
	push	edi
	mov	edi, esp
	push	ecx
	fld	DWORD PTR _byval$[ebp+40]
	fstp	DWORD PTR [esp]
	push	OFFSET ??_C@_09KPCJIOPG@Height?3?7?7?$AA@
	mov	DWORD PTR tv195[ebp], ebx
	mov	ebx, esp
	mov	DWORD PTR tv197[ebp], eax
	mov	eax, DWORD PTR __imp_?endl@std@@YAAAV?$basic_ostream@DU?$char_traits@D@std@@@1@AAV21@@Z
	push	eax
	lea	eax, DWORD PTR _byval$[ebp]
	push	eax
	push	OFFSET ??_C@_0BB@PBFHBIMO@Constructed?5by?3?7?$AA@
	mov	eax, DWORD PTR __imp_?cout@std@@3V?$basic_ostream@DU?$char_traits@D@std@@@1@A
	push	eax
	mov	DWORD PTR tv199[ebp], ecx
	mov	DWORD PTR tv201[ebp], edx
	call	??$?6U?$char_traits@D@std@@@std@@YAAAV?$basic_ostream@DU?$char_traits@D@std@@@0@AAV10@PBD@Z ; std::operator<<<std::char_traits<char> >
	add	esp, 8
	push	eax
	call	??$?6U?$char_traits@D@std@@@std@@YAAAV?$basic_ostream@DU?$char_traits@D@std@@@0@AAV10@PBD@Z ; std::operator<<<std::char_traits<char> >
	add	esp, 8
	mov	ecx, eax
	call	DWORD PTR __imp_??6?$basic_ostream@DU?$char_traits@D@std@@@std@@QAEAAV01@P6AAAV01@AAV01@@Z@Z
	cmp	ebx, esp
	call	__RTC_CheckEsp
	push	eax
	call	??$?6U?$char_traits@D@std@@@std@@YAAAV?$basic_ostream@DU?$char_traits@D@std@@@0@AAV10@PBD@Z ; std::operator<<<std::char_traits<char> >
	add	esp, 8
	mov	ecx, eax
	call	DWORD PTR __imp_??6?$basic_ostream@DU?$char_traits@D@std@@@std@@QAEAAV01@M@Z
	cmp	edi, esp
	call	__RTC_CheckEsp
	mov	ecx, eax
	call	DWORD PTR __imp_??6?$basic_ostream@DU?$char_traits@D@std@@@std@@QAEAAV01@P6AAAV01@AAV01@@Z@Z
	cmp	esi, esp
	call	__RTC_CheckEsp
	push	eax
	call	??$?6U?$char_traits@D@std@@@std@@YAAAV?$basic_ostream@DU?$char_traits@D@std@@@0@AAV10@PBD@Z ; std::operator<<<std::char_traits<char> >
	add	esp, 8
	mov	ecx, eax
	call	DWORD PTR __imp_??6?$basic_ostream@DU?$char_traits@D@std@@@std@@QAEAAV01@M@Z
	mov	esi, DWORD PTR tv201[ebp]
	cmp	esi, esp
	call	__RTC_CheckEsp
	mov	ecx, eax
	call	DWORD PTR __imp_??6?$basic_ostream@DU?$char_traits@D@std@@@std@@QAEAAV01@P6AAAV01@AAV01@@Z@Z
	mov	esi, DWORD PTR tv199[ebp]
	cmp	esi, esp
	call	__RTC_CheckEsp
	push	eax
	call	??$?6U?$char_traits@D@std@@@std@@YAAAV?$basic_ostream@DU?$char_traits@D@std@@@0@AAV10@PBD@Z ; std::operator<<<std::char_traits<char> >
	add	esp, 8
	mov	ecx, eax
	call	DWORD PTR __imp_??6?$basic_ostream@DU?$char_traits@D@std@@@std@@QAEAAV01@M@Z
	mov	esi, DWORD PTR tv197[ebp]
	cmp	esi, esp
	call	__RTC_CheckEsp
	mov	ecx, eax
	call	DWORD PTR __imp_??6?$basic_ostream@DU?$char_traits@D@std@@@std@@QAEAAV01@P6AAAV01@AAV01@@Z@Z
	mov	esi, DWORD PTR tv195[ebp]
	cmp	esi, esp
	call	__RTC_CheckEsp
	push	eax
	call	??$?6U?$char_traits@D@std@@@std@@YAAAV?$basic_ostream@DU?$char_traits@D@std@@@0@AAV10@PBD@Z ; std::operator<<<std::char_traits<char> >
	add	esp, 8
	mov	ecx, eax
	call	DWORD PTR __imp_??6?$basic_ostream@DU?$char_traits@D@std@@@std@@QAEAAV01@M@Z
	mov	esi, DWORD PTR tv193[ebp]
	cmp	esi, esp
	call	__RTC_CheckEsp
	mov	ecx, eax
	call	DWORD PTR __imp_??6?$basic_ostream@DU?$char_traits@D@std@@@std@@QAEAAV01@P6AAAV01@AAV01@@Z@Z
	mov	esi, DWORD PTR tv191[ebp]
	cmp	esi, esp
	call	__RTC_CheckEsp

; 98   : 
; 99   : 	return 0;

	xor	eax, eax

; 100  : } 

	push	edx
	mov	ecx, ebp
	push	eax
	lea	edx, DWORD PTR $LN5@vshowbox
	call	@_RTC_CheckStackVars@8
	pop	eax
	pop	edx
	pop	edi
	pop	esi
	pop	ebx
	add	esp, 228				; 000000e4H
	cmp	ebp, esp
	call	__RTC_CheckEsp
	mov	esp, ebp
	pop	ebp
	ret	0
	npad	2
$LN5@vshowbox:
	DD	1
	DD	$LN4@vshowbox
$LN4@vshowbox:
	DD	-8					; fffffff8H
	DD	4
	DD	$LN3@vshowbox
$LN3@vshowbox:
	DB	95					; 0000005fH
	DB	36					; 00000024H
	DB	65					; 00000041H
	DB	114					; 00000072H
	DB	114					; 00000072H
	DB	97					; 00000061H
	DB	121					; 00000079H
	DB	80					; 00000050H
	DB	97					; 00000061H
	DB	100					; 00000064H
	DB	0
?vshowbox@@YAHUbox@@@Z ENDP				; vshowbox
_TEXT	ENDS
PUBLIC	??_C@_0BO@IDGAPBNN@Box?5struct?5passed?5by?5Pointer?6?$AA@ ; `string'
PUBLIC	?pshowbox@@YAHPBUbox@@@Z			; pshowbox
;	COMDAT ??_C@_0BO@IDGAPBNN@Box?5struct?5passed?5by?5Pointer?6?$AA@
CONST	SEGMENT
??_C@_0BO@IDGAPBNN@Box?5struct?5passed?5by?5Pointer?6?$AA@ DB 'Box struct'
	DB	' passed by Pointer', 0aH, 00H		; `string'
; Function compile flags: /Odtp /RTCsu /ZI
CONST	ENDS
;	COMDAT ?pshowbox@@YAHPBUbox@@@Z
_TEXT	SEGMENT
tv209 = -216						; size = 4
tv207 = -212						; size = 4
tv205 = -208						; size = 4
tv203 = -204						; size = 4
tv201 = -200						; size = 4
tv199 = -196						; size = 4
_byaddr$ = 8						; size = 4
?pshowbox@@YAHPBUbox@@@Z PROC				; pshowbox, COMDAT

; 103  : {

	push	ebp
	mov	ebp, esp
	sub	esp, 216				; 000000d8H
	push	ebx
	push	esi
	push	edi
	lea	edi, DWORD PTR [ebp-216]
	mov	ecx, 54					; 00000036H
	mov	eax, -858993460				; ccccccccH
	rep stosd

; 104  : 	cout << "Box struct passed by Pointer\n";

	push	OFFSET ??_C@_0BO@IDGAPBNN@Box?5struct?5passed?5by?5Pointer?6?$AA@
	mov	eax, DWORD PTR __imp_?cout@std@@3V?$basic_ostream@DU?$char_traits@D@std@@@1@A
	push	eax
	call	??$?6U?$char_traits@D@std@@@std@@YAAAV?$basic_ostream@DU?$char_traits@D@std@@@0@AAV10@PBD@Z ; std::operator<<<std::char_traits<char> >
	add	esp, 8

; 105  : 	cout << "Constructed by:\t" << byaddr->maker << endl
; 106  : 		 << "Height:\t\t" << byaddr->height << endl
; 107  : 		 << "Width:\t\t" << byaddr->width << endl
; 108  : 		 << "Length:\t\t" << byaddr->length << endl
; 109  : 		 << "Volume:\t\t" << byaddr->volume << endl;

	mov	esi, esp
	mov	eax, DWORD PTR __imp_?endl@std@@YAAAV?$basic_ostream@DU?$char_traits@D@std@@@1@AAV21@@Z
	push	eax
	mov	edi, esp
	mov	ecx, DWORD PTR _byaddr$[ebp]
	push	ecx
	fld	DWORD PTR [ecx+52]
	fstp	DWORD PTR [esp]
	push	OFFSET ??_C@_09LGIMBJDB@Volume?3?7?7?$AA@
	mov	ebx, esp
	mov	edx, DWORD PTR __imp_?endl@std@@YAAAV?$basic_ostream@DU?$char_traits@D@std@@@1@AAV21@@Z
	push	edx
	mov	eax, esp
	mov	ecx, DWORD PTR _byaddr$[ebp]
	push	ecx
	fld	DWORD PTR [ecx+48]
	fstp	DWORD PTR [esp]
	push	OFFSET ??_C@_09HNADJPPG@Length?3?7?7?$AA@
	mov	ecx, esp
	mov	edx, DWORD PTR __imp_?endl@std@@YAAAV?$basic_ostream@DU?$char_traits@D@std@@@1@AAV21@@Z
	push	edx
	mov	edx, esp
	mov	DWORD PTR tv199[ebp], esi
	mov	esi, DWORD PTR _byaddr$[ebp]
	push	ecx
	fld	DWORD PTR [esi+44]
	fstp	DWORD PTR [esp]
	push	OFFSET ??_C@_08MHOMPPNA@Width?3?7?7?$AA@
	mov	esi, esp
	mov	DWORD PTR tv201[ebp], edi
	mov	edi, DWORD PTR __imp_?endl@std@@YAAAV?$basic_ostream@DU?$char_traits@D@std@@@1@AAV21@@Z
	push	edi
	mov	edi, esp
	mov	DWORD PTR tv203[ebp], ebx
	mov	ebx, DWORD PTR _byaddr$[ebp]
	push	ecx
	fld	DWORD PTR [ebx+40]
	fstp	DWORD PTR [esp]
	push	OFFSET ??_C@_09KPCJIOPG@Height?3?7?7?$AA@
	mov	ebx, esp
	mov	DWORD PTR tv205[ebp], eax
	mov	eax, DWORD PTR __imp_?endl@std@@YAAAV?$basic_ostream@DU?$char_traits@D@std@@@1@AAV21@@Z
	push	eax
	mov	eax, DWORD PTR _byaddr$[ebp]
	push	eax
	push	OFFSET ??_C@_0BB@PBFHBIMO@Constructed?5by?3?7?$AA@
	mov	eax, DWORD PTR __imp_?cout@std@@3V?$basic_ostream@DU?$char_traits@D@std@@@1@A
	push	eax
	mov	DWORD PTR tv207[ebp], ecx
	mov	DWORD PTR tv209[ebp], edx
	call	??$?6U?$char_traits@D@std@@@std@@YAAAV?$basic_ostream@DU?$char_traits@D@std@@@0@AAV10@PBD@Z ; std::operator<<<std::char_traits<char> >
	add	esp, 8
	push	eax
	call	??$?6U?$char_traits@D@std@@@std@@YAAAV?$basic_ostream@DU?$char_traits@D@std@@@0@AAV10@PBD@Z ; std::operator<<<std::char_traits<char> >
	add	esp, 8
	mov	ecx, eax
	call	DWORD PTR __imp_??6?$basic_ostream@DU?$char_traits@D@std@@@std@@QAEAAV01@P6AAAV01@AAV01@@Z@Z
	cmp	ebx, esp
	call	__RTC_CheckEsp
	push	eax
	call	??$?6U?$char_traits@D@std@@@std@@YAAAV?$basic_ostream@DU?$char_traits@D@std@@@0@AAV10@PBD@Z ; std::operator<<<std::char_traits<char> >
	add	esp, 8
	mov	ecx, eax
	call	DWORD PTR __imp_??6?$basic_ostream@DU?$char_traits@D@std@@@std@@QAEAAV01@M@Z
	cmp	edi, esp
	call	__RTC_CheckEsp
	mov	ecx, eax
	call	DWORD PTR __imp_??6?$basic_ostream@DU?$char_traits@D@std@@@std@@QAEAAV01@P6AAAV01@AAV01@@Z@Z
	cmp	esi, esp
	call	__RTC_CheckEsp
	push	eax
	call	??$?6U?$char_traits@D@std@@@std@@YAAAV?$basic_ostream@DU?$char_traits@D@std@@@0@AAV10@PBD@Z ; std::operator<<<std::char_traits<char> >
	add	esp, 8
	mov	ecx, eax
	call	DWORD PTR __imp_??6?$basic_ostream@DU?$char_traits@D@std@@@std@@QAEAAV01@M@Z
	mov	esi, DWORD PTR tv209[ebp]
	cmp	esi, esp
	call	__RTC_CheckEsp
	mov	ecx, eax
	call	DWORD PTR __imp_??6?$basic_ostream@DU?$char_traits@D@std@@@std@@QAEAAV01@P6AAAV01@AAV01@@Z@Z
	mov	esi, DWORD PTR tv207[ebp]
	cmp	esi, esp
	call	__RTC_CheckEsp
	push	eax
	call	??$?6U?$char_traits@D@std@@@std@@YAAAV?$basic_ostream@DU?$char_traits@D@std@@@0@AAV10@PBD@Z ; std::operator<<<std::char_traits<char> >
	add	esp, 8
	mov	ecx, eax
	call	DWORD PTR __imp_??6?$basic_ostream@DU?$char_traits@D@std@@@std@@QAEAAV01@M@Z
	mov	esi, DWORD PTR tv205[ebp]
	cmp	esi, esp
	call	__RTC_CheckEsp
	mov	ecx, eax
	call	DWORD PTR __imp_??6?$basic_ostream@DU?$char_traits@D@std@@@std@@QAEAAV01@P6AAAV01@AAV01@@Z@Z
	mov	esi, DWORD PTR tv203[ebp]
	cmp	esi, esp
	call	__RTC_CheckEsp
	push	eax
	call	??$?6U?$char_traits@D@std@@@std@@YAAAV?$basic_ostream@DU?$char_traits@D@std@@@0@AAV10@PBD@Z ; std::operator<<<std::char_traits<char> >
	add	esp, 8
	mov	ecx, eax
	call	DWORD PTR __imp_??6?$basic_ostream@DU?$char_traits@D@std@@@std@@QAEAAV01@M@Z
	mov	esi, DWORD PTR tv201[ebp]
	cmp	esi, esp
	call	__RTC_CheckEsp
	mov	ecx, eax
	call	DWORD PTR __imp_??6?$basic_ostream@DU?$char_traits@D@std@@@std@@QAEAAV01@P6AAAV01@AAV01@@Z@Z
	mov	esi, DWORD PTR tv199[ebp]
	cmp	esi, esp
	call	__RTC_CheckEsp

; 110  : 	
; 111  : 	return 0;

	xor	eax, eax

; 112  : }

	pop	edi
	pop	esi
	pop	ebx
	add	esp, 216				; 000000d8H
	cmp	ebp, esp
	call	__RTC_CheckEsp
	mov	esp, ebp
	pop	ebp
	ret	0
?pshowbox@@YAHPBUbox@@@Z ENDP				; pshowbox
_TEXT	ENDS
PUBLIC	__real@41900000
PUBLIC	__real@41580000
PUBLIC	__real@40b66666
PUBLIC	??_C@_06OJKEAEDO@Jipeto?$AA@			; `string'
PUBLIC	__$ArrayPad$
EXTRN	___security_cookie:DWORD
EXTRN	@__security_check_cookie@4:PROC
;	COMDAT __real@41900000
CONST	SEGMENT
__real@41900000 DD 041900000r			; 18
CONST	ENDS
;	COMDAT __real@41580000
CONST	SEGMENT
__real@41580000 DD 041580000r			; 13.5
CONST	ENDS
;	COMDAT __real@40b66666
CONST	SEGMENT
__real@40b66666 DD 040b66666r			; 5.7
CONST	ENDS
;	COMDAT ??_C@_06OJKEAEDO@Jipeto?$AA@
CONST	SEGMENT
??_C@_06OJKEAEDO@Jipeto?$AA@ DB 'Jipeto', 00H		; `string'
; Function compile flags: /Odtp /RTCsu /ZI
CONST	ENDS
;	COMDAT ?ch7_ex3@@YAXH@Z
_TEXT	SEGMENT
_mybox$ = -64						; size = 56
__$ArrayPad$ = -4					; size = 4
_choice$ = 8						; size = 4
?ch7_ex3@@YAXH@Z PROC					; ch7_ex3, COMDAT

; 114  : {

	push	ebp
	mov	ebp, esp
	sub	esp, 260				; 00000104H
	push	ebx
	push	esi
	push	edi
	lea	edi, DWORD PTR [ebp-260]
	mov	ecx, 65					; 00000041H
	mov	eax, -858993460				; ccccccccH
	rep stosd
	mov	eax, DWORD PTR ___security_cookie
	xor	eax, ebp
	mov	DWORD PTR __$ArrayPad$[ebp], eax

; 115  : 	box mybox =
; 116  : 	{
; 117  : 		"Jipeto",

	mov	eax, DWORD PTR ??_C@_06OJKEAEDO@Jipeto?$AA@
	mov	DWORD PTR _mybox$[ebp], eax
	mov	cx, WORD PTR ??_C@_06OJKEAEDO@Jipeto?$AA@+4
	mov	WORD PTR _mybox$[ebp+4], cx
	mov	dl, BYTE PTR ??_C@_06OJKEAEDO@Jipeto?$AA@+6
	mov	BYTE PTR _mybox$[ebp+6], dl
	xor	eax, eax
	mov	DWORD PTR _mybox$[ebp+7], eax
	mov	DWORD PTR _mybox$[ebp+11], eax
	mov	DWORD PTR _mybox$[ebp+15], eax
	mov	DWORD PTR _mybox$[ebp+19], eax
	mov	DWORD PTR _mybox$[ebp+23], eax
	mov	DWORD PTR _mybox$[ebp+27], eax
	mov	DWORD PTR _mybox$[ebp+31], eax
	mov	DWORD PTR _mybox$[ebp+35], eax
	mov	BYTE PTR _mybox$[ebp+39], al

; 118  : 		5.7,

	fld	DWORD PTR __real@40b66666
	fstp	DWORD PTR _mybox$[ebp+40]

; 119  : 		13.5,

	fld	DWORD PTR __real@41580000
	fstp	DWORD PTR _mybox$[ebp+44]

; 120  : 		18,

	fld	DWORD PTR __real@41900000
	fstp	DWORD PTR _mybox$[ebp+48]

; 121  : 		mybox.height * mybox.width * mybox.length
; 122  : 	};

	fld	DWORD PTR _mybox$[ebp+40]
	fmul	DWORD PTR _mybox$[ebp+44]
	fmul	DWORD PTR _mybox$[ebp+48]
	fstp	DWORD PTR _mybox$[ebp+52]

; 123  : 
; 124  : 	if (choice == 1)

	cmp	DWORD PTR _choice$[ebp], 1
	jne	SHORT $LN3@ch7_ex3

; 125  : 		vshowbox(mybox);

	sub	esp, 56					; 00000038H
	mov	ecx, 14					; 0000000eH
	lea	esi, DWORD PTR _mybox$[ebp]
	mov	edi, esp
	rep movsd
	call	?vshowbox@@YAHUbox@@@Z			; vshowbox
	add	esp, 56					; 00000038H
	jmp	SHORT $LN1@ch7_ex3
$LN3@ch7_ex3:

; 126  : 	else if (choice == 2)

	cmp	DWORD PTR _choice$[ebp], 2
	jne	SHORT $LN1@ch7_ex3

; 127  : 		pshowbox(&mybox);

	lea	eax, DWORD PTR _mybox$[ebp]
	push	eax
	call	?pshowbox@@YAHPBUbox@@@Z		; pshowbox
	add	esp, 4
$LN1@ch7_ex3:

; 128  : }

	push	edx
	mov	ecx, ebp
	push	eax
	lea	edx, DWORD PTR $LN8@ch7_ex3
	call	@_RTC_CheckStackVars@8
	pop	eax
	pop	edx
	pop	edi
	pop	esi
	pop	ebx
	mov	ecx, DWORD PTR __$ArrayPad$[ebp]
	xor	ecx, ebp
	call	@__security_check_cookie@4
	add	esp, 260				; 00000104H
	cmp	ebp, esp
	call	__RTC_CheckEsp
	mov	esp, ebp
	pop	ebp
	ret	0
$LN8@ch7_ex3:
	DD	1
	DD	$LN7@ch7_ex3
$LN7@ch7_ex3:
	DD	-64					; ffffffc0H
	DD	56					; 00000038H
	DD	$LN6@ch7_ex3
$LN6@ch7_ex3:
	DB	109					; 0000006dH
	DB	121					; 00000079H
	DB	98					; 00000062H
	DB	111					; 0000006fH
	DB	120					; 00000078H
	DB	0
?ch7_ex3@@YAXH@Z ENDP					; ch7_ex3
_TEXT	ENDS
PUBLIC	__real@3ff0000000000000
PUBLIC	?probability@@YAOIIII@Z				; probability
;	COMDAT __real@3ff0000000000000
CONST	SEGMENT
__real@3ff0000000000000 DQ 03ff0000000000000r	; 1
; Function compile flags: /Odtp /RTCsu /ZI
CONST	ENDS
;	COMDAT ?probability@@YAOIIII@Z
_TEXT	SEGMENT
tv136 = -288						; size = 8
tv95 = -288						; size = 8
tv89 = -288						; size = 8
tv82 = -288						; size = 8
_mpicks$ = -84						; size = 4
_p$ = -72						; size = 4
_mnums$ = -60						; size = 8
_n$ = -44						; size = 8
_temp$ = -28						; size = 8
_result$ = -12						; size = 8
_numbers$ = 8						; size = 4
_picks$ = 12						; size = 4
_meganums$ = 16						; size = 4
_megapicks$ = 20					; size = 4
?probability@@YAOIIII@Z PROC				; probability, COMDAT

; 134  : {

	push	ebp
	mov	ebp, esp
	sub	esp, 288				; 00000120H
	push	ebx
	push	esi
	push	edi
	lea	edi, DWORD PTR [ebp-288]
	mov	ecx, 72					; 00000048H
	mov	eax, -858993460				; ccccccccH
	rep stosd

; 135  : 	long double result, temp;
; 136  : 	result = temp = 1.0;

	fld1
	fstp	QWORD PTR _temp$[ebp]
	fld	QWORD PTR _temp$[ebp]
	fstp	QWORD PTR _result$[ebp]

; 137  : 	long double n, mnums;
; 138  : 	unsigned p, mpicks;
; 139  : 
; 140  : 	for (n = numbers, p = picks; p > 0; n--, p--)

	mov	eax, DWORD PTR _numbers$[ebp]
	mov	DWORD PTR tv82[ebp], eax
	mov	DWORD PTR tv82[ebp+4], 0
	fild	QWORD PTR tv82[ebp]
	fstp	QWORD PTR _n$[ebp]
	mov	ecx, DWORD PTR _picks$[ebp]
	mov	DWORD PTR _p$[ebp], ecx
	jmp	SHORT $LN6@probabilit
$LN5@probabilit:
	fld	QWORD PTR _n$[ebp]
	fsub	QWORD PTR __real@3ff0000000000000
	fstp	QWORD PTR _n$[ebp]
	mov	eax, DWORD PTR _p$[ebp]
	sub	eax, 1
	mov	DWORD PTR _p$[ebp], eax
$LN6@probabilit:
	cmp	DWORD PTR _p$[ebp], 0
	jbe	SHORT $LN4@probabilit

; 141  : 		result *= n/p;

	mov	eax, DWORD PTR _p$[ebp]
	mov	DWORD PTR tv89[ebp], eax
	mov	DWORD PTR tv89[ebp+4], 0
	fild	QWORD PTR tv89[ebp]
	fdivr	QWORD PTR _n$[ebp]
	fmul	QWORD PTR _result$[ebp]
	fstp	QWORD PTR _result$[ebp]
	jmp	SHORT $LN5@probabilit
$LN4@probabilit:

; 142  : 
; 143  : 	for (mnums = meganums, mpicks = megapicks; megapicks > 0; meganums--, megapicks--)

	mov	eax, DWORD PTR _meganums$[ebp]
	mov	DWORD PTR tv95[ebp], eax
	mov	DWORD PTR tv95[ebp+4], 0
	fild	QWORD PTR tv95[ebp]
	fstp	QWORD PTR _mnums$[ebp]
	mov	ecx, DWORD PTR _megapicks$[ebp]
	mov	DWORD PTR _mpicks$[ebp], ecx
	jmp	SHORT $LN3@probabilit
$LN2@probabilit:
	mov	eax, DWORD PTR _meganums$[ebp]
	sub	eax, 1
	mov	DWORD PTR _meganums$[ebp], eax
	mov	ecx, DWORD PTR _megapicks$[ebp]
	sub	ecx, 1
	mov	DWORD PTR _megapicks$[ebp], ecx
$LN3@probabilit:
	cmp	DWORD PTR _megapicks$[ebp], 0
	jbe	SHORT $LN1@probabilit

; 144  : 		temp *= meganums/megapicks;

	mov	eax, DWORD PTR _meganums$[ebp]
	xor	edx, edx
	div	DWORD PTR _megapicks$[ebp]
	mov	DWORD PTR tv136[ebp], eax
	mov	DWORD PTR tv136[ebp+4], 0
	fild	QWORD PTR tv136[ebp]
	fmul	QWORD PTR _temp$[ebp]
	fstp	QWORD PTR _temp$[ebp]
	jmp	SHORT $LN2@probabilit
$LN1@probabilit:

; 145  : 
; 146  : 	result *= temp;

	fld	QWORD PTR _result$[ebp]
	fmul	QWORD PTR _temp$[ebp]
	fstp	QWORD PTR _result$[ebp]

; 147  : 
; 148  : 	return result;

	fld	QWORD PTR _result$[ebp]

; 149  : }

	pop	edi
	pop	esi
	pop	ebx
	mov	esp, ebp
	pop	ebp
	ret	0
?probability@@YAOIIII@Z ENDP				; probability
_TEXT	ENDS
PUBLIC	??_C@_0BP@HHBDPGAC@Next?5two?5numbers?5?$CIq?5to?5quit?$CJ?3?5?$AA@ ; `string'
PUBLIC	??_C@_0O@BGNJEAPP@?5of?5winning?4?6?$AA@	; `string'
PUBLIC	??_C@_0BI@CEBPDKGP@You?5have?5one?5chance?5in?5?$AA@ ; `string'
PUBLIC	??_C@_0EM@JFFJPFPB@Now?5enter?5the?5number?5of?5Powerbal@ ; `string'
PUBLIC	??_C@_0FF@JEIFIGFL@Enter?5the?5total?5number?5of?5choice@ ; `string'
EXTRN	__imp_??6?$basic_ostream@DU?$char_traits@D@std@@@std@@QAEAAV01@O@Z:PROC
;	COMDAT ??_C@_0BP@HHBDPGAC@Next?5two?5numbers?5?$CIq?5to?5quit?$CJ?3?5?$AA@
CONST	SEGMENT
??_C@_0BP@HHBDPGAC@Next?5two?5numbers?5?$CIq?5to?5quit?$CJ?3?5?$AA@ DB 'N'
	DB	'ext two numbers (q to quit): ', 00H		; `string'
CONST	ENDS
;	COMDAT ??_C@_0O@BGNJEAPP@?5of?5winning?4?6?$AA@
CONST	SEGMENT
??_C@_0O@BGNJEAPP@?5of?5winning?4?6?$AA@ DB ' of winning.', 0aH, 00H ; `string'
CONST	ENDS
;	COMDAT ??_C@_0BI@CEBPDKGP@You?5have?5one?5chance?5in?5?$AA@
CONST	SEGMENT
??_C@_0BI@CEBPDKGP@You?5have?5one?5chance?5in?5?$AA@ DB 'You have one cha'
	DB	'nce in ', 00H				; `string'
CONST	ENDS
;	COMDAT ??_C@_0EM@JFFJPFPB@Now?5enter?5the?5number?5of?5Powerbal@
CONST	SEGMENT
??_C@_0EM@JFFJPFPB@Now?5enter?5the?5number?5of?5Powerbal@ DB 'Now enter t'
	DB	'he number of Powerball choices and', 0aH, 'the number of pick'
	DB	's allowed:', 0aH, 00H			; `string'
CONST	ENDS
;	COMDAT ??_C@_0FF@JEIFIGFL@Enter?5the?5total?5number?5of?5choice@
CONST	SEGMENT
??_C@_0FF@JEIFIGFL@Enter?5the?5total?5number?5of?5choice@ DB 'Enter the t'
	DB	'otal number of choices on the game card and', 0aH, 'the numbe'
	DB	'r of picks allowed:', 0aH, 00H		; `string'
; Function compile flags: /Odtp /RTCsu /ZI
CONST	ENDS
;	COMDAT ?ch7_ex4@@YAXXZ
_TEXT	SEGMENT
tv200 = -332						; size = 8
tv198 = -324						; size = 4
tv195 = -318						; size = 2
tv192 = -316						; size = 8
tv190 = -308						; size = 4
tv187 = -302						; size = 2
tv184 = -300						; size = 8
tv182 = -292						; size = 4
tv179 = -286						; size = 2
tv176 = -284						; size = 8
tv174 = -276						; size = 4
tv171 = -270						; size = 2
$T31064 = -264						; size = 4
_megachoices$ = -60					; size = 8
_megatotal$ = -44					; size = 8
_choices$ = -28						; size = 8
_total$ = -12						; size = 8
?ch7_ex4@@YAXXZ PROC					; ch7_ex4, COMDAT

; 151  : {

	push	ebp
	mov	ebp, esp
	sub	esp, 332				; 0000014cH
	push	ebx
	push	esi
	push	edi
	lea	edi, DWORD PTR [ebp-332]
	mov	ecx, 83					; 00000053H
	mov	eax, -858993460				; ccccccccH
	rep stosd

; 152  : 	double total, choices, megatotal, megachoices;
; 153  : 	cout << "Enter the total number of choices on the game card and\n"
; 154  : 			"the number of picks allowed:\n";

	push	OFFSET ??_C@_0FF@JEIFIGFL@Enter?5the?5total?5number?5of?5choice@
	mov	eax, DWORD PTR __imp_?cout@std@@3V?$basic_ostream@DU?$char_traits@D@std@@@1@A
	push	eax
	call	??$?6U?$char_traits@D@std@@@std@@YAAAV?$basic_ostream@DU?$char_traits@D@std@@@0@AAV10@PBD@Z ; std::operator<<<std::char_traits<char> >
	add	esp, 8
$LN2@ch7_ex4:

; 155  : 
; 156  : 	while ((cin >> total >> choices) && choices <= total)

	mov	esi, esp
	lea	eax, DWORD PTR _choices$[ebp]
	push	eax
	mov	edi, esp
	lea	ecx, DWORD PTR _total$[ebp]
	push	ecx
	mov	ecx, DWORD PTR __imp_?cin@std@@3V?$basic_istream@DU?$char_traits@D@std@@@1@A
	call	DWORD PTR __imp_??5?$basic_istream@DU?$char_traits@D@std@@@std@@QAEAAV01@AAN@Z
	cmp	edi, esp
	call	__RTC_CheckEsp
	mov	ecx, eax
	call	DWORD PTR __imp_??5?$basic_istream@DU?$char_traits@D@std@@@std@@QAEAAV01@AAN@Z
	cmp	esi, esp
	call	__RTC_CheckEsp
	mov	DWORD PTR $T31064[ebp], eax
	mov	edx, DWORD PTR $T31064[ebp]
	mov	eax, DWORD PTR [edx]
	mov	ecx, DWORD PTR $T31064[ebp]
	add	ecx, DWORD PTR [eax+4]
	mov	esi, esp
	call	DWORD PTR __imp_??Bios_base@std@@QBEPAXXZ
	cmp	esi, esp
	call	__RTC_CheckEsp
	test	eax, eax
	je	$LN1@ch7_ex4
	fld	QWORD PTR _total$[ebp]
	fcomp	QWORD PTR _choices$[ebp]
	fnstsw	ax
	test	ah, 1
	jne	$LN1@ch7_ex4

; 157  : 	{
; 158  : 		cout << "Now enter the number of Powerball choices and\n"
; 159  : 				"the number of picks allowed:\n";

	push	OFFSET ??_C@_0EM@JFFJPFPB@Now?5enter?5the?5number?5of?5Powerbal@
	mov	eax, DWORD PTR __imp_?cout@std@@3V?$basic_ostream@DU?$char_traits@D@std@@@1@A
	push	eax
	call	??$?6U?$char_traits@D@std@@@std@@YAAAV?$basic_ostream@DU?$char_traits@D@std@@@0@AAV10@PBD@Z ; std::operator<<<std::char_traits<char> >
	add	esp, 8

; 160  : 
; 161  : 		cin >> megatotal >> megachoices;

	mov	esi, esp
	lea	eax, DWORD PTR _megachoices$[ebp]
	push	eax
	mov	edi, esp
	lea	ecx, DWORD PTR _megatotal$[ebp]
	push	ecx
	mov	ecx, DWORD PTR __imp_?cin@std@@3V?$basic_istream@DU?$char_traits@D@std@@@1@A
	call	DWORD PTR __imp_??5?$basic_istream@DU?$char_traits@D@std@@@std@@QAEAAV01@AAN@Z
	cmp	edi, esp
	call	__RTC_CheckEsp
	mov	ecx, eax
	call	DWORD PTR __imp_??5?$basic_istream@DU?$char_traits@D@std@@@std@@QAEAAV01@AAN@Z
	cmp	esi, esp
	call	__RTC_CheckEsp

; 162  : 
; 163  : 		cout << "You have one chance in ";

	push	OFFSET ??_C@_0BI@CEBPDKGP@You?5have?5one?5chance?5in?5?$AA@
	mov	eax, DWORD PTR __imp_?cout@std@@3V?$basic_ostream@DU?$char_traits@D@std@@@1@A
	push	eax
	call	??$?6U?$char_traits@D@std@@@std@@YAAAV?$basic_ostream@DU?$char_traits@D@std@@@0@AAV10@PBD@Z ; std::operator<<<std::char_traits<char> >
	add	esp, 8

; 164  : 		cout << probability(total, choices, megatotal, megachoices);

	fld	QWORD PTR _megachoices$[ebp]
	fnstcw	WORD PTR tv171[ebp]
	movzx	eax, WORD PTR tv171[ebp]
	or	eax, 3072				; 00000c00H
	mov	DWORD PTR tv174[ebp], eax
	fldcw	WORD PTR tv174[ebp]
	fistp	QWORD PTR tv176[ebp]
	fldcw	WORD PTR tv171[ebp]
	mov	eax, DWORD PTR tv176[ebp]
	push	eax
	fld	QWORD PTR _megatotal$[ebp]
	fnstcw	WORD PTR tv179[ebp]
	movzx	eax, WORD PTR tv179[ebp]
	or	eax, 3072				; 00000c00H
	mov	DWORD PTR tv182[ebp], eax
	fldcw	WORD PTR tv182[ebp]
	fistp	QWORD PTR tv184[ebp]
	fldcw	WORD PTR tv179[ebp]
	mov	ecx, DWORD PTR tv184[ebp]
	push	ecx
	fld	QWORD PTR _choices$[ebp]
	fnstcw	WORD PTR tv187[ebp]
	movzx	eax, WORD PTR tv187[ebp]
	or	eax, 3072				; 00000c00H
	mov	DWORD PTR tv190[ebp], eax
	fldcw	WORD PTR tv190[ebp]
	fistp	QWORD PTR tv192[ebp]
	fldcw	WORD PTR tv187[ebp]
	mov	edx, DWORD PTR tv192[ebp]
	push	edx
	fld	QWORD PTR _total$[ebp]
	fnstcw	WORD PTR tv195[ebp]
	movzx	eax, WORD PTR tv195[ebp]
	or	eax, 3072				; 00000c00H
	mov	DWORD PTR tv198[ebp], eax
	fldcw	WORD PTR tv198[ebp]
	fistp	QWORD PTR tv200[ebp]
	fldcw	WORD PTR tv195[ebp]
	mov	eax, DWORD PTR tv200[ebp]
	push	eax
	call	?probability@@YAOIIII@Z			; probability
	add	esp, 16					; 00000010H
	mov	esi, esp
	sub	esp, 8
	fstp	QWORD PTR [esp]
	mov	ecx, DWORD PTR __imp_?cout@std@@3V?$basic_ostream@DU?$char_traits@D@std@@@1@A
	call	DWORD PTR __imp_??6?$basic_ostream@DU?$char_traits@D@std@@@std@@QAEAAV01@O@Z
	cmp	esi, esp
	call	__RTC_CheckEsp

; 165  : 		cout << " of winning.\n";

	push	OFFSET ??_C@_0O@BGNJEAPP@?5of?5winning?4?6?$AA@
	mov	eax, DWORD PTR __imp_?cout@std@@3V?$basic_ostream@DU?$char_traits@D@std@@@1@A
	push	eax
	call	??$?6U?$char_traits@D@std@@@std@@YAAAV?$basic_ostream@DU?$char_traits@D@std@@@0@AAV10@PBD@Z ; std::operator<<<std::char_traits<char> >
	add	esp, 8

; 166  : 		cout << "Next two numbers (q to quit): ";

	push	OFFSET ??_C@_0BP@HHBDPGAC@Next?5two?5numbers?5?$CIq?5to?5quit?$CJ?3?5?$AA@
	mov	eax, DWORD PTR __imp_?cout@std@@3V?$basic_ostream@DU?$char_traits@D@std@@@1@A
	push	eax
	call	??$?6U?$char_traits@D@std@@@std@@YAAAV?$basic_ostream@DU?$char_traits@D@std@@@0@AAV10@PBD@Z ; std::operator<<<std::char_traits<char> >
	add	esp, 8

; 167  : 	}

	jmp	$LN2@ch7_ex4
$LN1@ch7_ex4:

; 168  : }

	push	edx
	mov	ecx, ebp
	push	eax
	lea	edx, DWORD PTR $LN10@ch7_ex4
	call	@_RTC_CheckStackVars@8
	pop	eax
	pop	edx
	pop	edi
	pop	esi
	pop	ebx
	add	esp, 332				; 0000014cH
	cmp	ebp, esp
	call	__RTC_CheckEsp
	mov	esp, ebp
	pop	ebp
	ret	0
	npad	3
$LN10@ch7_ex4:
	DD	4
	DD	$LN9@ch7_ex4
$LN9@ch7_ex4:
	DD	-12					; fffffff4H
	DD	8
	DD	$LN5@ch7_ex4
	DD	-28					; ffffffe4H
	DD	8
	DD	$LN6@ch7_ex4
	DD	-44					; ffffffd4H
	DD	8
	DD	$LN7@ch7_ex4
	DD	-60					; ffffffc4H
	DD	8
	DD	$LN8@ch7_ex4
$LN8@ch7_ex4:
	DB	109					; 0000006dH
	DB	101					; 00000065H
	DB	103					; 00000067H
	DB	97					; 00000061H
	DB	99					; 00000063H
	DB	104					; 00000068H
	DB	111					; 0000006fH
	DB	105					; 00000069H
	DB	99					; 00000063H
	DB	101					; 00000065H
	DB	115					; 00000073H
	DB	0
$LN7@ch7_ex4:
	DB	109					; 0000006dH
	DB	101					; 00000065H
	DB	103					; 00000067H
	DB	97					; 00000061H
	DB	116					; 00000074H
	DB	111					; 0000006fH
	DB	116					; 00000074H
	DB	97					; 00000061H
	DB	108					; 0000006cH
	DB	0
$LN6@ch7_ex4:
	DB	99					; 00000063H
	DB	104					; 00000068H
	DB	111					; 0000006fH
	DB	105					; 00000069H
	DB	99					; 00000063H
	DB	101					; 00000065H
	DB	115					; 00000073H
	DB	0
$LN5@ch7_ex4:
	DB	116					; 00000074H
	DB	111					; 0000006fH
	DB	116					; 00000074H
	DB	97					; 00000061H
	DB	108					; 0000006cH
	DB	0
?ch7_ex4@@YAXXZ ENDP					; ch7_ex4
_TEXT	ENDS
PUBLIC	?factorial@@YAXHPAH@Z				; factorial
; Function compile flags: /Odtp /RTCsu /ZI
;	COMDAT ?factorial@@YAXHPAH@Z
_TEXT	SEGMENT
_factor$ = 8						; size = 4
_pf$ = 12						; size = 4
?factorial@@YAXHPAH@Z PROC				; factorial, COMDAT

; 172  : {

	push	ebp
	mov	ebp, esp
	sub	esp, 216				; 000000d8H
	push	ebx
	push	esi
	push	edi
	lea	edi, DWORD PTR [ebp-216]
	mov	ecx, 54					; 00000036H
	mov	eax, -858993460				; ccccccccH
	rep stosd

; 173  : 	int temp, result;
; 174  : 	*pf = *pf * factor;

	mov	eax, DWORD PTR _pf$[ebp]
	mov	ecx, DWORD PTR [eax]
	imul	ecx, DWORD PTR _factor$[ebp]
	mov	edx, DWORD PTR _pf$[ebp]
	mov	DWORD PTR [edx], ecx

; 175  : 	if (factor > 1)

	cmp	DWORD PTR _factor$[ebp], 1
	jle	SHORT $LN2@factorial

; 176  : 		factorial(factor-1, pf);

	mov	eax, DWORD PTR _pf$[ebp]
	push	eax
	mov	ecx, DWORD PTR _factor$[ebp]
	sub	ecx, 1
	push	ecx
	call	?factorial@@YAXHPAH@Z			; factorial
	add	esp, 8
$LN2@factorial:

; 177  : 
; 178  : 	//return result;
; 179  : }

	pop	edi
	pop	esi
	pop	ebx
	add	esp, 216				; 000000d8H
	cmp	ebp, esp
	call	__RTC_CheckEsp
	mov	esp, ebp
	pop	ebp
	ret	0
?factorial@@YAXHPAH@Z ENDP				; factorial
_TEXT	ENDS
PUBLIC	??_C@_04NMHJPDAJ@?$CB?5?$DN?5?$AA@		; `string'
;	COMDAT ??_C@_04NMHJPDAJ@?$CB?5?$DN?5?$AA@
CONST	SEGMENT
??_C@_04NMHJPDAJ@?$CB?5?$DN?5?$AA@ DB '! = ', 00H	; `string'
; Function compile flags: /Odtp /RTCsu /ZI
CONST	ENDS
;	COMDAT ?ch7_ex5@@YAXXZ
_TEXT	SEGMENT
tv132 = -232						; size = 4
_presult$ = -32						; size = 4
_result$ = -20						; size = 4
_factorme$ = -8						; size = 4
?ch7_ex5@@YAXXZ PROC					; ch7_ex5, COMDAT

; 181  : {

	push	ebp
	mov	ebp, esp
	sub	esp, 232				; 000000e8H
	push	ebx
	push	esi
	push	edi
	lea	edi, DWORD PTR [ebp-232]
	mov	ecx, 58					; 0000003aH
	mov	eax, -858993460				; ccccccccH
	rep stosd

; 182  : 	int factorme = 6;

	mov	DWORD PTR _factorme$[ebp], 6

; 183  : 	int result = 1;

	mov	DWORD PTR _result$[ebp], 1

; 184  : 	int * presult = &result;

	lea	eax, DWORD PTR _result$[ebp]
	mov	DWORD PTR _presult$[ebp], eax

; 185  : 
; 186  : 	factorial(factorme, presult);

	mov	eax, DWORD PTR _presult$[ebp]
	push	eax
	mov	ecx, DWORD PTR _factorme$[ebp]
	push	ecx
	call	?factorial@@YAXHPAH@Z			; factorial
	add	esp, 8

; 187  : 
; 188  : 	cout << factorme << "! = " << *presult << endl << endl;

	mov	esi, esp
	mov	eax, DWORD PTR __imp_?endl@std@@YAAAV?$basic_ostream@DU?$char_traits@D@std@@@1@AAV21@@Z
	push	eax
	mov	edi, esp
	mov	ecx, DWORD PTR __imp_?endl@std@@YAAAV?$basic_ostream@DU?$char_traits@D@std@@@1@AAV21@@Z
	push	ecx
	mov	ebx, esp
	mov	edx, DWORD PTR _presult$[ebp]
	mov	eax, DWORD PTR [edx]
	push	eax
	push	OFFSET ??_C@_04NMHJPDAJ@?$CB?5?$DN?5?$AA@
	mov	eax, esp
	mov	ecx, DWORD PTR _factorme$[ebp]
	push	ecx
	mov	ecx, DWORD PTR __imp_?cout@std@@3V?$basic_ostream@DU?$char_traits@D@std@@@1@A
	mov	DWORD PTR tv132[ebp], eax
	call	DWORD PTR __imp_??6?$basic_ostream@DU?$char_traits@D@std@@@std@@QAEAAV01@H@Z
	mov	ecx, DWORD PTR tv132[ebp]
	cmp	ecx, esp
	call	__RTC_CheckEsp
	push	eax
	call	??$?6U?$char_traits@D@std@@@std@@YAAAV?$basic_ostream@DU?$char_traits@D@std@@@0@AAV10@PBD@Z ; std::operator<<<std::char_traits<char> >
	add	esp, 8
	mov	ecx, eax
	call	DWORD PTR __imp_??6?$basic_ostream@DU?$char_traits@D@std@@@std@@QAEAAV01@H@Z
	cmp	ebx, esp
	call	__RTC_CheckEsp
	mov	ecx, eax
	call	DWORD PTR __imp_??6?$basic_ostream@DU?$char_traits@D@std@@@std@@QAEAAV01@P6AAAV01@AAV01@@Z@Z
	cmp	edi, esp
	call	__RTC_CheckEsp
	mov	ecx, eax
	call	DWORD PTR __imp_??6?$basic_ostream@DU?$char_traits@D@std@@@std@@QAEAAV01@P6AAAV01@AAV01@@Z@Z
	cmp	esi, esp
	call	__RTC_CheckEsp

; 189  : }

	push	edx
	mov	ecx, ebp
	push	eax
	lea	edx, DWORD PTR $LN5@ch7_ex5
	call	@_RTC_CheckStackVars@8
	pop	eax
	pop	edx
	pop	edi
	pop	esi
	pop	ebx
	add	esp, 232				; 000000e8H
	cmp	ebp, esp
	call	__RTC_CheckEsp
	mov	esp, ebp
	pop	ebp
	ret	0
$LN5@ch7_ex5:
	DD	1
	DD	$LN4@ch7_ex5
$LN4@ch7_ex5:
	DD	-20					; ffffffecH
	DD	4
	DD	$LN3@ch7_ex5
$LN3@ch7_ex5:
	DB	114					; 00000072H
	DB	101					; 00000065H
	DB	115					; 00000073H
	DB	117					; 00000075H
	DB	108					; 0000006cH
	DB	116					; 00000074H
	DB	0
?ch7_ex5@@YAXXZ ENDP					; ch7_ex5
_TEXT	ENDS
PUBLIC	??_C@_0CK@GNFCMEHN@Enter?5a?5bunch?5of?5double?5values?0?5@ ; `string'
PUBLIC	?fill_array@@YAHPANH@Z				; fill_array
;	COMDAT ??_C@_0CK@GNFCMEHN@Enter?5a?5bunch?5of?5double?5values?0?5@
CONST	SEGMENT
??_C@_0CK@GNFCMEHN@Enter?5a?5bunch?5of?5double?5values?0?5@ DB 'Enter a b'
	DB	'unch of double values, ya fairy', 0aH, 00H	; `string'
; Function compile flags: /Odtp /RTCsu /ZI
CONST	ENDS
;	COMDAT ?fill_array@@YAHPANH@Z
_TEXT	SEGMENT
$T31080 = -224						; size = 4
$T31081 = -212						; size = 4
_loop$ = -8						; size = 4
_input$ = 8						; size = 4
_size$ = 12						; size = 4
?fill_array@@YAHPANH@Z PROC				; fill_array, COMDAT

; 192  : {

	push	ebp
	mov	ebp, esp
	sub	esp, 228				; 000000e4H
	push	ebx
	push	esi
	push	edi
	lea	edi, DWORD PTR [ebp-228]
	mov	ecx, 57					; 00000039H
	mov	eax, -858993460				; ccccccccH
	rep stosd

; 193  : 	int loop = 0;

	mov	DWORD PTR _loop$[ebp], 0

; 194  : 	cout << "Enter a bunch of double values, ya fairy\n";

	push	OFFSET ??_C@_0CK@GNFCMEHN@Enter?5a?5bunch?5of?5double?5values?0?5@
	mov	eax, DWORD PTR __imp_?cout@std@@3V?$basic_ostream@DU?$char_traits@D@std@@@1@A
	push	eax
	call	??$?6U?$char_traits@D@std@@@std@@YAAAV?$basic_ostream@DU?$char_traits@D@std@@@0@AAV10@PBD@Z ; std::operator<<<std::char_traits<char> >
	add	esp, 8
	jmp	SHORT $LN3@fill_array
$LN2@fill_array:

; 195  : 			
; 196  : 	for (; loop < size && cout << "#" << loop+1 << ": " && cin >> input[loop]; loop++)

	mov	eax, DWORD PTR _loop$[ebp]
	add	eax, 1
	mov	DWORD PTR _loop$[ebp], eax
$LN3@fill_array:
	mov	eax, DWORD PTR _loop$[ebp]
	cmp	eax, DWORD PTR _size$[ebp]
	jge	$LN1@fill_array
	push	OFFSET ??_C@_02LMMGGCAJ@?3?5?$AA@
	mov	eax, DWORD PTR _loop$[ebp]
	add	eax, 1
	mov	esi, esp
	push	eax
	push	OFFSET ??_C@_01IPJKGB@?$CD?$AA@
	mov	ecx, DWORD PTR __imp_?cout@std@@3V?$basic_ostream@DU?$char_traits@D@std@@@1@A
	push	ecx
	call	??$?6U?$char_traits@D@std@@@std@@YAAAV?$basic_ostream@DU?$char_traits@D@std@@@0@AAV10@PBD@Z ; std::operator<<<std::char_traits<char> >
	add	esp, 8
	mov	ecx, eax
	call	DWORD PTR __imp_??6?$basic_ostream@DU?$char_traits@D@std@@@std@@QAEAAV01@H@Z
	cmp	esi, esp
	call	__RTC_CheckEsp
	push	eax
	call	??$?6U?$char_traits@D@std@@@std@@YAAAV?$basic_ostream@DU?$char_traits@D@std@@@0@AAV10@PBD@Z ; std::operator<<<std::char_traits<char> >
	add	esp, 8
	mov	DWORD PTR $T31080[ebp], eax
	mov	edx, DWORD PTR $T31080[ebp]
	mov	eax, DWORD PTR [edx]
	mov	ecx, DWORD PTR $T31080[ebp]
	add	ecx, DWORD PTR [eax+4]
	mov	esi, esp
	call	DWORD PTR __imp_??Bios_base@std@@QBEPAXXZ
	cmp	esi, esp
	call	__RTC_CheckEsp
	test	eax, eax
	je	SHORT $LN1@fill_array
	mov	eax, DWORD PTR _loop$[ebp]
	mov	ecx, DWORD PTR _input$[ebp]
	lea	edx, DWORD PTR [ecx+eax*8]
	mov	esi, esp
	push	edx
	mov	ecx, DWORD PTR __imp_?cin@std@@3V?$basic_istream@DU?$char_traits@D@std@@@1@A
	call	DWORD PTR __imp_??5?$basic_istream@DU?$char_traits@D@std@@@std@@QAEAAV01@AAN@Z
	cmp	esi, esp
	call	__RTC_CheckEsp
	mov	DWORD PTR $T31081[ebp], eax
	mov	eax, DWORD PTR $T31081[ebp]
	mov	ecx, DWORD PTR [eax]
	mov	edx, DWORD PTR $T31081[ebp]
	add	edx, DWORD PTR [ecx+4]
	mov	esi, esp
	mov	ecx, edx
	call	DWORD PTR __imp_??Bios_base@std@@QBEPAXXZ
	cmp	esi, esp
	call	__RTC_CheckEsp
	test	eax, eax
	je	SHORT $LN1@fill_array

; 197  : 		;

	jmp	$LN2@fill_array
$LN1@fill_array:

; 198  : 	cout << endl;

	mov	esi, esp
	mov	eax, DWORD PTR __imp_?endl@std@@YAAAV?$basic_ostream@DU?$char_traits@D@std@@@1@AAV21@@Z
	push	eax
	mov	ecx, DWORD PTR __imp_?cout@std@@3V?$basic_ostream@DU?$char_traits@D@std@@@1@A
	call	DWORD PTR __imp_??6?$basic_ostream@DU?$char_traits@D@std@@@std@@QAEAAV01@P6AAAV01@AAV01@@Z@Z
	cmp	esi, esp
	call	__RTC_CheckEsp

; 199  : 	return loop;

	mov	eax, DWORD PTR _loop$[ebp]

; 200  : }

	pop	edi
	pop	esi
	pop	ebx
	add	esp, 228				; 000000e4H
	cmp	ebp, esp
	call	__RTC_CheckEsp
	mov	esp, ebp
	pop	ebp
	ret	0
?fill_array@@YAHPANH@Z ENDP				; fill_array
_TEXT	ENDS
PUBLIC	??_C@_0BA@HGLPJEFM@Array?5Element?5?$CD?$AA@	; `string'
PUBLIC	?show_array@@YAHPBNH@Z				; show_array
;	COMDAT ??_C@_0BA@HGLPJEFM@Array?5Element?5?$CD?$AA@
CONST	SEGMENT
??_C@_0BA@HGLPJEFM@Array?5Element?5?$CD?$AA@ DB 'Array Element #', 00H ; `string'
; Function compile flags: /Odtp /RTCsu /ZI
CONST	ENDS
;	COMDAT ?show_array@@YAHPBNH@Z
_TEXT	SEGMENT
_loop$ = -8						; size = 4
_input$ = 8						; size = 4
_size$ = 12						; size = 4
?show_array@@YAHPBNH@Z PROC				; show_array, COMDAT

; 203  : {

	push	ebp
	mov	ebp, esp
	sub	esp, 204				; 000000ccH
	push	ebx
	push	esi
	push	edi
	lea	edi, DWORD PTR [ebp-204]
	mov	ecx, 51					; 00000033H
	mov	eax, -858993460				; ccccccccH
	rep stosd

; 204  : 	int loop = 0;

	mov	DWORD PTR _loop$[ebp], 0
$LN2@show_array:

; 205  : 
; 206  : 	while (loop < size)

	mov	eax, DWORD PTR _loop$[ebp]
	cmp	eax, DWORD PTR _size$[ebp]
	jge	SHORT $LN1@show_array

; 207  : 	{
; 208  : 		cout << "Array Element #" << loop+1 << ": " << input[loop] << endl;

	mov	esi, esp
	mov	eax, DWORD PTR __imp_?endl@std@@YAAAV?$basic_ostream@DU?$char_traits@D@std@@@1@AAV21@@Z
	push	eax
	mov	edi, esp
	mov	ecx, DWORD PTR _loop$[ebp]
	mov	edx, DWORD PTR _input$[ebp]
	sub	esp, 8
	fld	QWORD PTR [edx+ecx*8]
	fstp	QWORD PTR [esp]
	push	OFFSET ??_C@_02LMMGGCAJ@?3?5?$AA@
	mov	eax, DWORD PTR _loop$[ebp]
	add	eax, 1
	mov	ebx, esp
	push	eax
	push	OFFSET ??_C@_0BA@HGLPJEFM@Array?5Element?5?$CD?$AA@
	mov	ecx, DWORD PTR __imp_?cout@std@@3V?$basic_ostream@DU?$char_traits@D@std@@@1@A
	push	ecx
	call	??$?6U?$char_traits@D@std@@@std@@YAAAV?$basic_ostream@DU?$char_traits@D@std@@@0@AAV10@PBD@Z ; std::operator<<<std::char_traits<char> >
	add	esp, 8
	mov	ecx, eax
	call	DWORD PTR __imp_??6?$basic_ostream@DU?$char_traits@D@std@@@std@@QAEAAV01@H@Z
	cmp	ebx, esp
	call	__RTC_CheckEsp
	push	eax
	call	??$?6U?$char_traits@D@std@@@std@@YAAAV?$basic_ostream@DU?$char_traits@D@std@@@0@AAV10@PBD@Z ; std::operator<<<std::char_traits<char> >
	add	esp, 8
	mov	ecx, eax
	call	DWORD PTR __imp_??6?$basic_ostream@DU?$char_traits@D@std@@@std@@QAEAAV01@N@Z
	cmp	edi, esp
	call	__RTC_CheckEsp
	mov	ecx, eax
	call	DWORD PTR __imp_??6?$basic_ostream@DU?$char_traits@D@std@@@std@@QAEAAV01@P6AAAV01@AAV01@@Z@Z
	cmp	esi, esp
	call	__RTC_CheckEsp

; 209  : 		loop++;

	mov	eax, DWORD PTR _loop$[ebp]
	add	eax, 1
	mov	DWORD PTR _loop$[ebp], eax

; 210  : 	}

	jmp	$LN2@show_array
$LN1@show_array:

; 211  : 	
; 212  : 	return loop;

	mov	eax, DWORD PTR _loop$[ebp]

; 213  : }

	pop	edi
	pop	esi
	pop	ebx
	add	esp, 204				; 000000ccH
	cmp	ebp, esp
	call	__RTC_CheckEsp
	mov	esp, ebp
	pop	ebp
	ret	0
?show_array@@YAHPBNH@Z ENDP				; show_array
_TEXT	ENDS
PUBLIC	?reverse_array@@YAXPANH@Z			; reverse_array
; Function compile flags: /Odtp /RTCsu /ZI
;	COMDAT ?reverse_array@@YAXPANH@Z
_TEXT	SEGMENT
_input$ = 8						; size = 4
_size$ = 12						; size = 4
?reverse_array@@YAXPANH@Z PROC				; reverse_array, COMDAT

; 216  : {

	push	ebp
	mov	ebp, esp
	sub	esp, 192				; 000000c0H
	push	ebx
	push	esi
	push	edi
	lea	edi, DWORD PTR [ebp-192]
	mov	ecx, 48					; 00000030H
	mov	eax, -858993460				; ccccccccH
	rep stosd

; 217  : 	
; 218  : }

	pop	edi
	pop	esi
	pop	ebx
	mov	esp, ebp
	pop	ebp
	ret	0
?reverse_array@@YAXPANH@Z ENDP				; reverse_array
_TEXT	ENDS
PUBLIC	__$ArrayPad$
; Function compile flags: /Odtp /RTCsu /ZI
;	COMDAT ?ch7_ex6@@YAXXZ
_TEXT	SEGMENT
_theArray$ = -84					; size = 40
_numsReturned$ = -36					; size = 4
_numberEntered$ = -24					; size = 4
_arraysize$ = -12					; size = 4
__$ArrayPad$ = -4					; size = 4
?ch7_ex6@@YAXXZ PROC					; ch7_ex6, COMDAT

; 220  : {

	push	ebp
	mov	ebp, esp
	sub	esp, 280				; 00000118H
	push	ebx
	push	esi
	push	edi
	lea	edi, DWORD PTR [ebp-280]
	mov	ecx, 70					; 00000046H
	mov	eax, -858993460				; ccccccccH
	rep stosd
	mov	eax, DWORD PTR ___security_cookie
	xor	eax, ebp
	mov	DWORD PTR __$ArrayPad$[ebp], eax

; 221  : 	const int arraysize = 5;

	mov	DWORD PTR _arraysize$[ebp], 5

; 222  : 	int numberEntered, numsReturned;
; 223  : 	numberEntered = numsReturned = 0;

	mov	DWORD PTR _numsReturned$[ebp], 0
	mov	eax, DWORD PTR _numsReturned$[ebp]
	mov	DWORD PTR _numberEntered$[ebp], eax

; 224  : 	double theArray[arraysize];
; 225  : 
; 226  : 	numberEntered = fill_array(theArray, arraysize);

	push	5
	lea	eax, DWORD PTR _theArray$[ebp]
	push	eax
	call	?fill_array@@YAHPANH@Z			; fill_array
	add	esp, 8
	mov	DWORD PTR _numberEntered$[ebp], eax

; 227  : 	numsReturned = show_array(theArray, numberEntered);

	mov	eax, DWORD PTR _numberEntered$[ebp]
	push	eax
	lea	ecx, DWORD PTR _theArray$[ebp]
	push	ecx
	call	?show_array@@YAHPBNH@Z			; show_array
	add	esp, 8
	mov	DWORD PTR _numsReturned$[ebp], eax

; 228  : 
; 229  : }

	push	edx
	mov	ecx, ebp
	push	eax
	lea	edx, DWORD PTR $LN5@ch7_ex6
	call	@_RTC_CheckStackVars@8
	pop	eax
	pop	edx
	pop	edi
	pop	esi
	pop	ebx
	mov	ecx, DWORD PTR __$ArrayPad$[ebp]
	xor	ecx, ebp
	call	@__security_check_cookie@4
	add	esp, 280				; 00000118H
	cmp	ebp, esp
	call	__RTC_CheckEsp
	mov	esp, ebp
	pop	ebp
	ret	0
	npad	1
$LN5@ch7_ex6:
	DD	1
	DD	$LN4@ch7_ex6
$LN4@ch7_ex6:
	DD	-84					; ffffffacH
	DD	40					; 00000028H
	DD	$LN3@ch7_ex6
$LN3@ch7_ex6:
	DB	116					; 00000074H
	DB	104					; 00000068H
	DB	101					; 00000065H
	DB	65					; 00000041H
	DB	114					; 00000072H
	DB	114					; 00000072H
	DB	97					; 00000061H
	DB	121					; 00000079H
	DB	0
?ch7_ex6@@YAXXZ ENDP					; ch7_ex6
; Function compile flags: /Odtp /RTCsu /ZI
_TEXT	ENDS
;	COMDAT ?ch7_ex7@@YAXXZ
_TEXT	SEGMENT
?ch7_ex7@@YAXXZ PROC					; ch7_ex7, COMDAT

; 231  : {

	push	ebp
	mov	ebp, esp
	sub	esp, 192				; 000000c0H
	push	ebx
	push	esi
	push	edi
	lea	edi, DWORD PTR [ebp-192]
	mov	ecx, 48					; 00000030H
	mov	eax, -858993460				; ccccccccH
	rep stosd

; 232  : }

	pop	edi
	pop	esi
	pop	ebx
	mov	esp, ebp
	pop	ebp
	ret	0
?ch7_ex7@@YAXXZ ENDP					; ch7_ex7
; Function compile flags: /Odtp /RTCsu /ZI
_TEXT	ENDS
;	COMDAT ?ch7_ex8@@YAXXZ
_TEXT	SEGMENT
?ch7_ex8@@YAXXZ PROC					; ch7_ex8, COMDAT

; 234  : {

	push	ebp
	mov	ebp, esp
	sub	esp, 192				; 000000c0H
	push	ebx
	push	esi
	push	edi
	lea	edi, DWORD PTR [ebp-192]
	mov	ecx, 48					; 00000030H
	mov	eax, -858993460				; ccccccccH
	rep stosd

; 235  : }

	pop	edi
	pop	esi
	pop	ebx
	mov	esp, ebp
	pop	ebp
	ret	0
?ch7_ex8@@YAXXZ ENDP					; ch7_ex8
; Function compile flags: /Odtp /RTCsu /ZI
_TEXT	ENDS
;	COMDAT ?ch7_ex9@@YAXXZ
_TEXT	SEGMENT
?ch7_ex9@@YAXXZ PROC					; ch7_ex9, COMDAT

; 237  : {

	push	ebp
	mov	ebp, esp
	sub	esp, 192				; 000000c0H
	push	ebx
	push	esi
	push	edi
	lea	edi, DWORD PTR [ebp-192]
	mov	ecx, 48					; 00000030H
	mov	eax, -858993460				; ccccccccH
	rep stosd

; 238  : }

	pop	edi
	pop	esi
	pop	ebx
	mov	esp, ebp
	pop	ebp
	ret	0
?ch7_ex9@@YAXXZ ENDP					; ch7_ex9
; Function compile flags: /Odtp /RTCsu /ZI
_TEXT	ENDS
;	COMDAT ?ch7_ex10@@YAXXZ
_TEXT	SEGMENT
?ch7_ex10@@YAXXZ PROC					; ch7_ex10, COMDAT

; 240  : {

	push	ebp
	mov	ebp, esp
	sub	esp, 192				; 000000c0H
	push	ebx
	push	esi
	push	edi
	lea	edi, DWORD PTR [ebp-192]
	mov	ecx, 48					; 00000030H
	mov	eax, -858993460				; ccccccccH
	rep stosd

; 241  : }

	pop	edi
	pop	esi
	pop	ebx
	mov	esp, ebp
	pop	ebp
	ret	0
?ch7_ex10@@YAXXZ ENDP					; ch7_ex10
_TEXT	ENDS
PUBLIC	__real@4000000000000000
;	COMDAT __real@4000000000000000
CONST	SEGMENT
__real@4000000000000000 DQ 04000000000000000r	; 2
; Function compile flags: /Odtp /RTCsu /ZI
CONST	ENDS
;	COMDAT ?harmony@@YANNN@Z
_TEXT	SEGMENT
_x$ = 8							; size = 8
_y$ = 16						; size = 8
?harmony@@YANNN@Z PROC					; harmony, COMDAT

; 245  : {

	push	ebp
	mov	ebp, esp
	sub	esp, 192				; 000000c0H
	push	ebx
	push	esi
	push	edi
	lea	edi, DWORD PTR [ebp-192]
	mov	ecx, 48					; 00000030H
	mov	eax, -858993460				; ccccccccH
	rep stosd

; 246  : 	return 2.0*x*y/(x+y);

	fld	QWORD PTR __real@4000000000000000
	fmul	QWORD PTR _x$[ebp]
	fmul	QWORD PTR _y$[ebp]
	fld	QWORD PTR _x$[ebp]
	fadd	QWORD PTR _y$[ebp]
	fdivp	ST(1), ST(0)

; 247  : }

	pop	edi
	pop	esi
	pop	ebx
	mov	esp, ebp
	pop	ebp
	ret	0
?harmony@@YANNN@Z ENDP					; harmony
_TEXT	ENDS
PUBLIC	??_C@_0CG@JFIACGOE@Enter?5golf?5scores?5to?5be?5crunched@ ; `string'
EXTRN	??_U@YAPAXI@Z:PROC				; operator new[]
;	COMDAT ??_C@_0CG@JFIACGOE@Enter?5golf?5scores?5to?5be?5crunched@
CONST	SEGMENT
??_C@_0CG@JFIACGOE@Enter?5golf?5scores?5to?5be?5crunched@ DB 'Enter golf '
	DB	'scores to be crunched', 0aH, '#1: ', 00H	; `string'
; Function compile flags: /Odtp /RTCsu /ZI
CONST	ENDS
;	COMDAT ?golfread@@YAPAHH@Z
_TEXT	SEGMENT
$T31106 = -236						; size = 4
$T31107 = -224						; size = 4
_loop$23789 = -20					; size = 4
_scores$ = -8						; size = 4
_arraysize$ = 8						; size = 4
?golfread@@YAPAHH@Z PROC				; golfread, COMDAT

; 250  : {

	push	ebp
	mov	ebp, esp
	sub	esp, 240				; 000000f0H
	push	ebx
	push	esi
	push	edi
	lea	edi, DWORD PTR [ebp-240]
	mov	ecx, 60					; 0000003cH
	mov	eax, -858993460				; ccccccccH
	rep stosd

; 251  : 	int * scores = new int[arraysize];

	xor	ecx, ecx
	mov	eax, DWORD PTR _arraysize$[ebp]
	mov	edx, 4
	mul	edx
	seto	cl
	neg	ecx
	or	ecx, eax
	push	ecx
	call	??_U@YAPAXI@Z				; operator new[]
	add	esp, 4
	mov	DWORD PTR $T31106[ebp], eax
	mov	eax, DWORD PTR $T31106[ebp]
	mov	DWORD PTR _scores$[ebp], eax

; 252  : 	
; 253  : 	cout << "Enter golf scores to be crunched\n#1: ";

	push	OFFSET ??_C@_0CG@JFIACGOE@Enter?5golf?5scores?5to?5be?5crunched@
	mov	eax, DWORD PTR __imp_?cout@std@@3V?$basic_ostream@DU?$char_traits@D@std@@@1@A
	push	eax
	call	??$?6U?$char_traits@D@std@@@std@@YAAAV?$basic_ostream@DU?$char_traits@D@std@@@0@AAV10@PBD@Z ; std::operator<<<std::char_traits<char> >
	add	esp, 8

; 254  : 
; 255  : 	for (int loop = 0; loop < arraysize && cin >> scores[loop]; ++loop)

	mov	DWORD PTR _loop$23789[ebp], 0
	jmp	SHORT $LN3@golfread
$LN2@golfread:
	mov	eax, DWORD PTR _loop$23789[ebp]
	add	eax, 1
	mov	DWORD PTR _loop$23789[ebp], eax
$LN3@golfread:
	mov	eax, DWORD PTR _loop$23789[ebp]
	cmp	eax, DWORD PTR _arraysize$[ebp]
	jge	$LN1@golfread
	mov	eax, DWORD PTR _loop$23789[ebp]
	mov	ecx, DWORD PTR _scores$[ebp]
	lea	edx, DWORD PTR [ecx+eax*4]
	mov	esi, esp
	push	edx
	mov	ecx, DWORD PTR __imp_?cin@std@@3V?$basic_istream@DU?$char_traits@D@std@@@1@A
	call	DWORD PTR __imp_??5?$basic_istream@DU?$char_traits@D@std@@@std@@QAEAAV01@AAH@Z
	cmp	esi, esp
	call	__RTC_CheckEsp
	mov	DWORD PTR $T31107[ebp], eax
	mov	eax, DWORD PTR $T31107[ebp]
	mov	ecx, DWORD PTR [eax]
	mov	edx, DWORD PTR $T31107[ebp]
	add	edx, DWORD PTR [ecx+4]
	mov	esi, esp
	mov	ecx, edx
	call	DWORD PTR __imp_??Bios_base@std@@QBEPAXXZ
	cmp	esi, esp
	call	__RTC_CheckEsp
	test	eax, eax
	je	SHORT $LN1@golfread

; 256  : 		cout << "#" << loop+1 << ": ";

	push	OFFSET ??_C@_02LMMGGCAJ@?3?5?$AA@
	mov	eax, DWORD PTR _loop$23789[ebp]
	add	eax, 1
	mov	esi, esp
	push	eax
	push	OFFSET ??_C@_01IPJKGB@?$CD?$AA@
	mov	ecx, DWORD PTR __imp_?cout@std@@3V?$basic_ostream@DU?$char_traits@D@std@@@1@A
	push	ecx
	call	??$?6U?$char_traits@D@std@@@std@@YAAAV?$basic_ostream@DU?$char_traits@D@std@@@0@AAV10@PBD@Z ; std::operator<<<std::char_traits<char> >
	add	esp, 8
	mov	ecx, eax
	call	DWORD PTR __imp_??6?$basic_ostream@DU?$char_traits@D@std@@@std@@QAEAAV01@H@Z
	cmp	esi, esp
	call	__RTC_CheckEsp
	push	eax
	call	??$?6U?$char_traits@D@std@@@std@@YAAAV?$basic_ostream@DU?$char_traits@D@std@@@0@AAV10@PBD@Z ; std::operator<<<std::char_traits<char> >
	add	esp, 8
	jmp	$LN2@golfread
$LN1@golfread:

; 257  : 
; 258  : 	return scores;

	mov	eax, DWORD PTR _scores$[ebp]

; 259  : }

	pop	edi
	pop	esi
	pop	ebx
	add	esp, 240				; 000000f0H
	cmp	ebp, esp
	call	__RTC_CheckEsp
	mov	esp, ebp
	pop	ebp
	ret	0
?golfread@@YAPAHH@Z ENDP				; golfread
_TEXT	ENDS
PUBLIC	??1sentry@?$basic_ostream@DU?$char_traits@D@std@@@std@@QAE@XZ ; std::basic_ostream<char,std::char_traits<char> >::sentry::~sentry
PUBLIC	?eq_int_type@?$char_traits@D@std@@SA_NABH0@Z	; std::char_traits<char>::eq_int_type
PUBLIC	?eof@?$char_traits@D@std@@SAHXZ			; std::char_traits<char>::eof
PUBLIC	??Bsentry@?$basic_ostream@DU?$char_traits@D@std@@@std@@QBEPQ_Bool_struct@2@HXZ ; std::basic_ostream<char,std::char_traits<char> >::sentry::operator int std::_Bool_struct::*
PUBLIC	??0sentry@?$basic_ostream@DU?$char_traits@D@std@@@std@@QAE@AAV12@@Z ; std::basic_ostream<char,std::char_traits<char> >::sentry::sentry
PUBLIC	?length@?$char_traits@D@std@@SAIPBD@Z		; std::char_traits<char>::length
EXTRN	__imp_?setstate@?$basic_ios@DU?$char_traits@D@std@@@std@@QAEXH_N@Z:PROC
EXTRN	__imp_?width@ios_base@std@@QAE_J_J@Z:PROC
EXTRN	__imp_?sputn@?$basic_streambuf@DU?$char_traits@D@std@@@std@@QAE_JPBD_J@Z:PROC
EXTRN	__imp_?sputc@?$basic_streambuf@DU?$char_traits@D@std@@@std@@QAEHD@Z:PROC
EXTRN	__imp_?rdbuf@?$basic_ios@DU?$char_traits@D@std@@@std@@QBEPAV?$basic_streambuf@DU?$char_traits@D@std@@@2@XZ:PROC
EXTRN	__imp_?fill@?$basic_ios@DU?$char_traits@D@std@@@std@@QBEDXZ:PROC
EXTRN	__imp_?flags@ios_base@std@@QBEHXZ:PROC
EXTRN	__imp_?width@ios_base@std@@QBE_JXZ:PROC
EXTRN	___CxxFrameHandler3:PROC
;	COMDAT xdata$x
; File d:\tools\dev\vs2010\vc\include\ostream
xdata$x	SEGMENT
__catchsym$??$?6U?$char_traits@D@std@@@std@@YAAAV?$basic_ostream@DU?$char_traits@D@std@@@0@AAV10@PBD@Z$3 DD 040H
	DD	00H
	DD	00H
	DD	FLAT:__catch$??$?6U?$char_traits@D@std@@@std@@YAAAV?$basic_ostream@DU?$char_traits@D@std@@@0@AAV10@PBD@Z$0
__tryblocktable$??$?6U?$char_traits@D@std@@@std@@YAAAV?$basic_ostream@DU?$char_traits@D@std@@@0@AAV10@PBD@Z DD 01H
	DD	01H
	DD	02H
	DD	01H
	DD	FLAT:__catchsym$??$?6U?$char_traits@D@std@@@std@@YAAAV?$basic_ostream@DU?$char_traits@D@std@@@0@AAV10@PBD@Z$3
__unwindtable$??$?6U?$char_traits@D@std@@@std@@YAAAV?$basic_ostream@DU?$char_traits@D@std@@@0@AAV10@PBD@Z DD 0ffffffffH
	DD	FLAT:__unwindfunclet$??$?6U?$char_traits@D@std@@@std@@YAAAV?$basic_ostream@DU?$char_traits@D@std@@@0@AAV10@PBD@Z$2
	DD	00H
	DD	00H
	DD	00H
	DD	00H
__ehfuncinfo$??$?6U?$char_traits@D@std@@@std@@YAAAV?$basic_ostream@DU?$char_traits@D@std@@@0@AAV10@PBD@Z DD 019930522H
	DD	03H
	DD	FLAT:__unwindtable$??$?6U?$char_traits@D@std@@@std@@YAAAV?$basic_ostream@DU?$char_traits@D@std@@@0@AAV10@PBD@Z
	DD	01H
	DD	FLAT:__tryblocktable$??$?6U?$char_traits@D@std@@@std@@YAAAV?$basic_ostream@DU?$char_traits@D@std@@@0@AAV10@PBD@Z
	DD	2 DUP(00H)
	DD	00H
	DD	01H
; Function compile flags: /Odtp /RTCsu /ZI
xdata$x	ENDS
;	COMDAT ??$?6U?$char_traits@D@std@@@std@@YAAAV?$basic_ostream@DU?$char_traits@D@std@@@0@AAV10@PBD@Z
_TEXT	SEGMENT
tv135 = -352						; size = 8
tv293 = -345						; size = 1
tv286 = -345						; size = 1
tv345 = -344						; size = 8
tv292 = -344						; size = 4
tv285 = -344						; size = 4
tv291 = -340						; size = 4
tv288 = -340						; size = 8
tv284 = -340						; size = 4
tv331 = -336						; size = 8
tv290 = -336						; size = 4
tv283 = -336						; size = 4
tv287 = -332						; size = 4
tv137 = -332						; size = 4
tv289 = -329						; size = 1
tv282 = -329						; size = 1
$T31112 = -324						; size = 4
$T31113 = -312						; size = 4
$T31114 = -300						; size = 4
$T31115 = -288						; size = 4
$T31116 = -276						; size = 4
__Ok$ = -72						; size = 8
__Pad$ = -56						; size = 8
__Count$ = -40						; size = 8
__State$ = -24						; size = 4
__$EHRec$ = -16						; size = 16
__Ostr$ = 8						; size = 4
__Val$ = 12						; size = 4
??$?6U?$char_traits@D@std@@@std@@YAAAV?$basic_ostream@DU?$char_traits@D@std@@@0@AAV10@PBD@Z PROC ; std::operator<<<std::char_traits<char> >, COMDAT

; 767  : 	{	// insert NTBS into char stream

	push	ebp
	mov	ebp, esp
	push	-1
	push	__ehhandler$??$?6U?$char_traits@D@std@@@std@@YAAAV?$basic_ostream@DU?$char_traits@D@std@@@0@AAV10@PBD@Z
	mov	eax, DWORD PTR fs:0
	push	eax
	push	ecx
	sub	esp, 336				; 00000150H
	push	ebx
	push	esi
	push	edi
	lea	edi, DWORD PTR [ebp-352]
	mov	ecx, 84					; 00000054H
	mov	eax, -858993460				; ccccccccH
	rep stosd
	mov	eax, DWORD PTR ___security_cookie
	xor	eax, ebp
	push	eax
	lea	eax, DWORD PTR __$EHRec$[ebp+4]
	mov	DWORD PTR fs:0, eax
	mov	DWORD PTR __$EHRec$[ebp], esp

; 768  : 	typedef char _Elem;
; 769  : 	typedef basic_ostream<_Elem, _Traits> _Myos;
; 770  : 	ios_base::iostate _State = ios_base::goodbit;

	mov	DWORD PTR __State$[ebp], 0

; 771  : 	streamsize _Count = (streamsize)_Traits::length(_Val);	// may overflow

	mov	eax, DWORD PTR __Val$[ebp]
	push	eax
	call	?length@?$char_traits@D@std@@SAIPBD@Z	; std::char_traits<char>::length
	add	esp, 4
	xor	ecx, ecx
	mov	DWORD PTR __Count$[ebp], eax
	mov	DWORD PTR __Count$[ebp+4], ecx

; 772  : 	streamsize _Pad = _Ostr.width() <= 0 || _Ostr.width() <= _Count
; 773  : 		? 0 : _Ostr.width() - _Count;

	mov	eax, DWORD PTR __Ostr$[ebp]
	mov	ecx, DWORD PTR [eax]
	mov	edx, DWORD PTR __Ostr$[ebp]
	add	edx, DWORD PTR [ecx+4]
	mov	esi, esp
	mov	ecx, edx
	call	DWORD PTR __imp_?width@ios_base@std@@QBE_JXZ
	cmp	esi, esp
	call	__RTC_CheckEsp
	mov	DWORD PTR tv331[ebp], eax
	mov	DWORD PTR tv331[ebp+4], edx
	cmp	DWORD PTR tv331[ebp+4], 0
	jl	SHORT $LN17@operator
	jg	SHORT $LN25@operator
	cmp	DWORD PTR tv331[ebp], 0
	jbe	SHORT $LN17@operator
$LN25@operator:
	mov	eax, DWORD PTR __Ostr$[ebp]
	mov	ecx, DWORD PTR [eax]
	mov	edx, DWORD PTR __Ostr$[ebp]
	add	edx, DWORD PTR [ecx+4]
	mov	esi, esp
	mov	ecx, edx
	call	DWORD PTR __imp_?width@ios_base@std@@QBE_JXZ
	cmp	esi, esp
	call	__RTC_CheckEsp
	mov	DWORD PTR tv345[ebp], eax
	mov	DWORD PTR tv345[ebp+4], edx
	mov	eax, DWORD PTR tv345[ebp+4]
	cmp	eax, DWORD PTR __Count$[ebp+4]
	jl	SHORT $LN17@operator
	jg	SHORT $LN26@operator
	mov	ecx, DWORD PTR tv345[ebp]
	cmp	ecx, DWORD PTR __Count$[ebp]
	jbe	SHORT $LN17@operator
$LN26@operator:
	mov	edx, DWORD PTR __Ostr$[ebp]
	mov	eax, DWORD PTR [edx]
	mov	ecx, DWORD PTR __Ostr$[ebp]
	add	ecx, DWORD PTR [eax+4]
	mov	esi, esp
	call	DWORD PTR __imp_?width@ios_base@std@@QBE_JXZ
	cmp	esi, esp
	call	__RTC_CheckEsp
	sub	eax, DWORD PTR __Count$[ebp]
	sbb	edx, DWORD PTR __Count$[ebp+4]
	mov	DWORD PTR tv135[ebp], eax
	mov	DWORD PTR tv135[ebp+4], edx
	jmp	SHORT $LN18@operator
$LN17@operator:
	mov	DWORD PTR tv135[ebp], 0
	mov	DWORD PTR tv135[ebp+4], 0
$LN18@operator:
	mov	ecx, DWORD PTR tv135[ebp]
	mov	DWORD PTR __Pad$[ebp], ecx
	mov	edx, DWORD PTR tv135[ebp+4]
	mov	DWORD PTR __Pad$[ebp+4], edx

; 774  : 	const typename _Myos::sentry _Ok(_Ostr);

	mov	eax, DWORD PTR __Ostr$[ebp]
	push	eax
	lea	ecx, DWORD PTR __Ok$[ebp]
	call	??0sentry@?$basic_ostream@DU?$char_traits@D@std@@@std@@QAE@AAV12@@Z ; std::basic_ostream<char,std::char_traits<char> >::sentry::sentry
	mov	DWORD PTR __$EHRec$[ebp+12], 0

; 775  : 
; 776  : 	if (!_Ok)

	lea	ecx, DWORD PTR __Ok$[ebp]
	call	??Bsentry@?$basic_ostream@DU?$char_traits@D@std@@@std@@QBEPQ_Bool_struct@2@HXZ ; std::basic_ostream<char,std::char_traits<char> >::sentry::operator int std::_Bool_struct::*
	cmp	eax, -1
	jne	SHORT $LN14@operator

; 777  : 		_State |= ios_base::badbit;

	mov	eax, DWORD PTR __State$[ebp]
	or	eax, 4
	mov	DWORD PTR __State$[ebp], eax

; 778  : 	else

	jmp	$LN13@operator
$LN14@operator:

; 779  : 		{	// state okay, insert
; 780  : 		_TRY_IO_BEGIN

	mov	BYTE PTR __$EHRec$[ebp+12], 1

; 781  : 		if ((_Ostr.flags() & ios_base::adjustfield) != ios_base::left)

	mov	eax, DWORD PTR __Ostr$[ebp]
	mov	ecx, DWORD PTR [eax]
	mov	edx, DWORD PTR __Ostr$[ebp]
	add	edx, DWORD PTR [ecx+4]
	mov	esi, esp
	mov	ecx, edx
	call	DWORD PTR __imp_?flags@ios_base@std@@QBEHXZ
	cmp	esi, esp
	call	__RTC_CheckEsp
	mov	DWORD PTR tv137[ebp], eax
	mov	eax, DWORD PTR tv137[ebp]
	and	eax, 448				; 000001c0H
	cmp	eax, 64					; 00000040H
	je	$LN11@operator
	jmp	SHORT $LN10@operator
$LN9@operator:

; 782  : 			for (; 0 < _Pad; --_Pad)	// pad on left

	mov	eax, DWORD PTR __Pad$[ebp]
	sub	eax, 1
	mov	ecx, DWORD PTR __Pad$[ebp+4]
	sbb	ecx, 0
	mov	DWORD PTR __Pad$[ebp], eax
	mov	DWORD PTR __Pad$[ebp+4], ecx
$LN10@operator:
	cmp	DWORD PTR __Pad$[ebp+4], 0
	jl	$LN11@operator
	jg	SHORT $LN27@operator
	cmp	DWORD PTR __Pad$[ebp], 0
	jbe	$LN11@operator
$LN27@operator:

; 783  : 				if (_Traits::eq_int_type(_Traits::eof(),
; 784  : 					_Ostr.rdbuf()->sputc(_Ostr.fill())))

	mov	eax, DWORD PTR __Ostr$[ebp]
	mov	ecx, DWORD PTR [eax]
	mov	edx, DWORD PTR __Ostr$[ebp]
	add	edx, DWORD PTR [ecx+4]
	mov	esi, esp
	mov	ecx, edx
	call	DWORD PTR __imp_?fill@?$basic_ios@DU?$char_traits@D@std@@@std@@QBEDXZ
	cmp	esi, esp
	call	__RTC_CheckEsp
	mov	BYTE PTR tv282[ebp], al
	mov	eax, DWORD PTR __Ostr$[ebp]
	mov	ecx, DWORD PTR [eax]
	mov	edx, DWORD PTR __Ostr$[ebp]
	add	edx, DWORD PTR [ecx+4]
	mov	esi, esp
	mov	ecx, edx
	call	DWORD PTR __imp_?rdbuf@?$basic_ios@DU?$char_traits@D@std@@@std@@QBEPAV?$basic_streambuf@DU?$char_traits@D@std@@@2@XZ
	cmp	esi, esp
	call	__RTC_CheckEsp
	mov	DWORD PTR tv283[ebp], eax
	mov	esi, esp
	movzx	eax, BYTE PTR tv282[ebp]
	push	eax
	mov	ecx, DWORD PTR tv283[ebp]
	call	DWORD PTR __imp_?sputc@?$basic_streambuf@DU?$char_traits@D@std@@@std@@QAEHD@Z
	cmp	esi, esp
	call	__RTC_CheckEsp
	mov	DWORD PTR tv284[ebp], eax
	mov	ecx, DWORD PTR tv284[ebp]
	mov	DWORD PTR $T31112[ebp], ecx
	call	?eof@?$char_traits@D@std@@SAHXZ		; std::char_traits<char>::eof
	mov	DWORD PTR tv285[ebp], eax
	mov	edx, DWORD PTR tv285[ebp]
	mov	DWORD PTR $T31113[ebp], edx
	lea	eax, DWORD PTR $T31112[ebp]
	push	eax
	lea	ecx, DWORD PTR $T31113[ebp]
	push	ecx
	call	?eq_int_type@?$char_traits@D@std@@SA_NABH0@Z ; std::char_traits<char>::eq_int_type
	add	esp, 8
	mov	BYTE PTR tv286[ebp], al
	movzx	edx, BYTE PTR tv286[ebp]
	test	edx, edx
	je	SHORT $LN7@operator

; 785  : 					{	// insertion failed, quit
; 786  : 					_State |= ios_base::badbit;

	mov	eax, DWORD PTR __State$[ebp]
	or	eax, 4
	mov	DWORD PTR __State$[ebp], eax

; 787  : 					break;

	jmp	SHORT $LN11@operator
$LN7@operator:

; 788  : 					}
; 789  : 
; 790  : 		if (_State == ios_base::goodbit

	jmp	$LN9@operator
$LN11@operator:

; 791  : 			&& _Ostr.rdbuf()->sputn(_Val, _Count) != _Count)

	cmp	DWORD PTR __State$[ebp], 0
	jne	SHORT $LN6@operator
	mov	eax, DWORD PTR __Ostr$[ebp]
	mov	ecx, DWORD PTR [eax]
	mov	edx, DWORD PTR __Ostr$[ebp]
	add	edx, DWORD PTR [ecx+4]
	mov	esi, esp
	mov	ecx, edx
	call	DWORD PTR __imp_?rdbuf@?$basic_ios@DU?$char_traits@D@std@@@std@@QBEPAV?$basic_streambuf@DU?$char_traits@D@std@@@2@XZ
	cmp	esi, esp
	call	__RTC_CheckEsp
	mov	DWORD PTR tv287[ebp], eax
	mov	esi, esp
	mov	eax, DWORD PTR __Count$[ebp+4]
	push	eax
	mov	ecx, DWORD PTR __Count$[ebp]
	push	ecx
	mov	edx, DWORD PTR __Val$[ebp]
	push	edx
	mov	ecx, DWORD PTR tv287[ebp]
	call	DWORD PTR __imp_?sputn@?$basic_streambuf@DU?$char_traits@D@std@@@std@@QAE_JPBD_J@Z
	cmp	esi, esp
	call	__RTC_CheckEsp
	mov	DWORD PTR tv288[ebp], eax
	mov	DWORD PTR tv288[ebp+4], edx
	mov	eax, DWORD PTR tv288[ebp]
	cmp	eax, DWORD PTR __Count$[ebp]
	jne	SHORT $LN28@operator
	mov	ecx, DWORD PTR tv288[ebp+4]
	cmp	ecx, DWORD PTR __Count$[ebp+4]
	je	SHORT $LN6@operator
$LN28@operator:

; 792  : 			_State |= ios_base::badbit;

	mov	eax, DWORD PTR __State$[ebp]
	or	eax, 4
	mov	DWORD PTR __State$[ebp], eax
$LN6@operator:

; 793  : 
; 794  : 		if (_State == ios_base::goodbit)

	cmp	DWORD PTR __State$[ebp], 0
	jne	$LN5@operator
	jmp	SHORT $LN4@operator
$LN3@operator:

; 795  : 			for (; 0 < _Pad; --_Pad)	// pad on right

	mov	eax, DWORD PTR __Pad$[ebp]
	sub	eax, 1
	mov	ecx, DWORD PTR __Pad$[ebp+4]
	sbb	ecx, 0
	mov	DWORD PTR __Pad$[ebp], eax
	mov	DWORD PTR __Pad$[ebp+4], ecx
$LN4@operator:
	cmp	DWORD PTR __Pad$[ebp+4], 0
	jl	$LN5@operator
	jg	SHORT $LN29@operator
	cmp	DWORD PTR __Pad$[ebp], 0
	jbe	$LN5@operator
$LN29@operator:

; 796  : 				if (_Traits::eq_int_type(_Traits::eof(),
; 797  : 					_Ostr.rdbuf()->sputc(_Ostr.fill())))

	mov	eax, DWORD PTR __Ostr$[ebp]
	mov	ecx, DWORD PTR [eax]
	mov	edx, DWORD PTR __Ostr$[ebp]
	add	edx, DWORD PTR [ecx+4]
	mov	esi, esp
	mov	ecx, edx
	call	DWORD PTR __imp_?fill@?$basic_ios@DU?$char_traits@D@std@@@std@@QBEDXZ
	cmp	esi, esp
	call	__RTC_CheckEsp
	mov	BYTE PTR tv289[ebp], al
	mov	eax, DWORD PTR __Ostr$[ebp]
	mov	ecx, DWORD PTR [eax]
	mov	edx, DWORD PTR __Ostr$[ebp]
	add	edx, DWORD PTR [ecx+4]
	mov	esi, esp
	mov	ecx, edx
	call	DWORD PTR __imp_?rdbuf@?$basic_ios@DU?$char_traits@D@std@@@std@@QBEPAV?$basic_streambuf@DU?$char_traits@D@std@@@2@XZ
	cmp	esi, esp
	call	__RTC_CheckEsp
	mov	DWORD PTR tv290[ebp], eax
	mov	esi, esp
	movzx	eax, BYTE PTR tv289[ebp]
	push	eax
	mov	ecx, DWORD PTR tv290[ebp]
	call	DWORD PTR __imp_?sputc@?$basic_streambuf@DU?$char_traits@D@std@@@std@@QAEHD@Z
	cmp	esi, esp
	call	__RTC_CheckEsp
	mov	DWORD PTR tv291[ebp], eax
	mov	ecx, DWORD PTR tv291[ebp]
	mov	DWORD PTR $T31114[ebp], ecx
	call	?eof@?$char_traits@D@std@@SAHXZ		; std::char_traits<char>::eof
	mov	DWORD PTR tv292[ebp], eax
	mov	edx, DWORD PTR tv292[ebp]
	mov	DWORD PTR $T31115[ebp], edx
	lea	eax, DWORD PTR $T31114[ebp]
	push	eax
	lea	ecx, DWORD PTR $T31115[ebp]
	push	ecx
	call	?eq_int_type@?$char_traits@D@std@@SA_NABH0@Z ; std::char_traits<char>::eq_int_type
	add	esp, 8
	mov	BYTE PTR tv293[ebp], al
	movzx	edx, BYTE PTR tv293[ebp]
	test	edx, edx
	je	SHORT $LN1@operator

; 798  : 					{	// insertion failed, quit
; 799  : 					_State |= ios_base::badbit;

	mov	eax, DWORD PTR __State$[ebp]
	or	eax, 4
	mov	DWORD PTR __State$[ebp], eax

; 800  : 					break;

	jmp	SHORT $LN5@operator
$LN1@operator:

; 801  : 					}

	jmp	$LN3@operator
$LN5@operator:

; 802  : 		_Ostr.width(0);

	mov	esi, esp
	push	0
	push	0
	mov	eax, DWORD PTR __Ostr$[ebp]
	mov	ecx, DWORD PTR [eax]
	mov	edx, DWORD PTR __Ostr$[ebp]
	add	edx, DWORD PTR [ecx+4]
	mov	ecx, edx
	call	DWORD PTR __imp_?width@ios_base@std@@QAE_J_J@Z
	cmp	esi, esp
	call	__RTC_CheckEsp
	jmp	SHORT $LN19@operator
__catch$??$?6U?$char_traits@D@std@@@std@@YAAAV?$basic_ostream@DU?$char_traits@D@std@@@0@AAV10@PBD@Z$0:

; 803  : 		_CATCH_IO_(_Ostr)

	mov	esi, esp
	push	1
	push	4
	mov	eax, DWORD PTR __Ostr$[ebp]
	mov	ecx, DWORD PTR [eax]
	mov	edx, DWORD PTR __Ostr$[ebp]
	add	edx, DWORD PTR [ecx+4]
	mov	ecx, edx
	call	DWORD PTR __imp_?setstate@?$basic_ios@DU?$char_traits@D@std@@@std@@QAEXH_N@Z
	cmp	esi, esp
	call	__RTC_CheckEsp
	mov	DWORD PTR __$EHRec$[ebp+12], 0
	mov	eax, $LN13@operator
	ret	0
$LN19@operator:
	mov	DWORD PTR __$EHRec$[ebp+12], 0
$LN13@operator:

; 804  : 		}
; 805  : 
; 806  : 	_Ostr.setstate(_State);

	mov	esi, esp
	push	0
	mov	eax, DWORD PTR __State$[ebp]
	push	eax
	mov	ecx, DWORD PTR __Ostr$[ebp]
	mov	edx, DWORD PTR [ecx]
	mov	ecx, DWORD PTR __Ostr$[ebp]
	add	ecx, DWORD PTR [edx+4]
	call	DWORD PTR __imp_?setstate@?$basic_ios@DU?$char_traits@D@std@@@std@@QAEXH_N@Z
	cmp	esi, esp
	call	__RTC_CheckEsp

; 807  : 	return (_Ostr);

	mov	eax, DWORD PTR __Ostr$[ebp]
	mov	DWORD PTR $T31116[ebp], eax
	mov	DWORD PTR __$EHRec$[ebp+12], -1
	lea	ecx, DWORD PTR __Ok$[ebp]
	call	??1sentry@?$basic_ostream@DU?$char_traits@D@std@@@std@@QAE@XZ ; std::basic_ostream<char,std::char_traits<char> >::sentry::~sentry
	mov	eax, DWORD PTR $T31116[ebp]

; 808  : 	}

	push	edx
	mov	ecx, ebp
	push	eax
	lea	edx, DWORD PTR $LN33@operator
	call	@_RTC_CheckStackVars@8
	pop	eax
	pop	edx
	mov	ecx, DWORD PTR __$EHRec$[ebp+4]
	mov	DWORD PTR fs:0, ecx
	pop	ecx
	pop	edi
	pop	esi
	pop	ebx
	add	esp, 352				; 00000160H
	cmp	ebp, esp
	call	__RTC_CheckEsp
	mov	esp, ebp
	pop	ebp
	ret	0
$LN33@operator:
	DD	1
	DD	$LN32@operator
$LN32@operator:
	DD	-72					; ffffffb8H
	DD	8
	DD	$LN30@operator
$LN30@operator:
	DB	95					; 0000005fH
	DB	79					; 0000004fH
	DB	107					; 0000006bH
	DB	0
_TEXT	ENDS
;	COMDAT text$x
text$x	SEGMENT
__unwindfunclet$??$?6U?$char_traits@D@std@@@std@@YAAAV?$basic_ostream@DU?$char_traits@D@std@@@0@AAV10@PBD@Z$2:
	lea	ecx, DWORD PTR __Ok$[ebp]
	jmp	??1sentry@?$basic_ostream@DU?$char_traits@D@std@@@std@@QAE@XZ ; std::basic_ostream<char,std::char_traits<char> >::sentry::~sentry
__ehhandler$??$?6U?$char_traits@D@std@@@std@@YAAAV?$basic_ostream@DU?$char_traits@D@std@@@0@AAV10@PBD@Z:
	mov	edx, DWORD PTR [esp+8]
	lea	eax, DWORD PTR [edx+12]
	mov	ecx, DWORD PTR [edx-356]
	xor	ecx, eax
	call	@__security_check_cookie@4
	mov	eax, OFFSET __ehfuncinfo$??$?6U?$char_traits@D@std@@@std@@YAAAV?$basic_ostream@DU?$char_traits@D@std@@@0@AAV10@PBD@Z
	jmp	___CxxFrameHandler3
text$x	ENDS
??$?6U?$char_traits@D@std@@@std@@YAAAV?$basic_ostream@DU?$char_traits@D@std@@@0@AAV10@PBD@Z ENDP ; std::operator<<<std::char_traits<char> >
EXTRN	_strlen:PROC
; Function compile flags: /Odtp /RTCsu /ZI
; File d:\tools\dev\vs2010\vc\include\iosfwd
;	COMDAT ?length@?$char_traits@D@std@@SAIPBD@Z
_TEXT	SEGMENT
__First$ = 8						; size = 4
?length@?$char_traits@D@std@@SAIPBD@Z PROC		; std::char_traits<char>::length, COMDAT

; 490  : 		{	// find length of null-terminated string

	push	ebp
	mov	ebp, esp
	sub	esp, 192				; 000000c0H
	push	ebx
	push	esi
	push	edi
	lea	edi, DWORD PTR [ebp-192]
	mov	ecx, 48					; 00000030H
	mov	eax, -858993460				; ccccccccH
	rep stosd

; 491  : 		return (_CSTD strlen(_First));

	mov	eax, DWORD PTR __First$[ebp]
	push	eax
	call	_strlen
	add	esp, 4

; 492  : 		}

	pop	edi
	pop	esi
	pop	ebx
	add	esp, 192				; 000000c0H
	cmp	ebp, esp
	call	__RTC_CheckEsp
	mov	esp, ebp
	pop	ebp
	ret	0
?length@?$char_traits@D@std@@SAIPBD@Z ENDP		; std::char_traits<char>::length
; Function compile flags: /Odtp /RTCsu /ZI
_TEXT	ENDS
;	COMDAT ?eq_int_type@?$char_traits@D@std@@SA_NABH0@Z
_TEXT	SEGMENT
__Left$ = 8						; size = 4
__Right$ = 12						; size = 4
?eq_int_type@?$char_traits@D@std@@SA_NABH0@Z PROC	; std::char_traits<char>::eq_int_type, COMDAT

; 552  : 		{	// test for metacharacter equality

	push	ebp
	mov	ebp, esp
	sub	esp, 192				; 000000c0H
	push	ebx
	push	esi
	push	edi
	lea	edi, DWORD PTR [ebp-192]
	mov	ecx, 48					; 00000030H
	mov	eax, -858993460				; ccccccccH
	rep stosd

; 553  : 		return (_Left == _Right);

	mov	eax, DWORD PTR __Left$[ebp]
	mov	ecx, DWORD PTR __Right$[ebp]
	mov	edx, DWORD PTR [eax]
	xor	eax, eax
	cmp	edx, DWORD PTR [ecx]
	sete	al

; 554  : 		}

	pop	edi
	pop	esi
	pop	ebx
	mov	esp, ebp
	pop	ebp
	ret	0
?eq_int_type@?$char_traits@D@std@@SA_NABH0@Z ENDP	; std::char_traits<char>::eq_int_type
; Function compile flags: /Odtp /RTCsu /ZI
_TEXT	ENDS
;	COMDAT ?eof@?$char_traits@D@std@@SAHXZ
_TEXT	SEGMENT
?eof@?$char_traits@D@std@@SAHXZ PROC			; std::char_traits<char>::eof, COMDAT

; 562  : 		{	// return end-of-file metacharacter

	push	ebp
	mov	ebp, esp
	sub	esp, 192				; 000000c0H
	push	ebx
	push	esi
	push	edi
	lea	edi, DWORD PTR [ebp-192]
	mov	ecx, 48					; 00000030H
	mov	eax, -858993460				; ccccccccH
	rep stosd

; 563  : 		return (EOF);

	or	eax, -1

; 564  : 		}

	pop	edi
	pop	esi
	pop	ebx
	mov	esp, ebp
	pop	ebp
	ret	0
?eof@?$char_traits@D@std@@SAHXZ ENDP			; std::char_traits<char>::eof
_TEXT	ENDS
PUBLIC	??1_Sentry_base@?$basic_ostream@DU?$char_traits@D@std@@@std@@QAE@XZ ; std::basic_ostream<char,std::char_traits<char> >::_Sentry_base::~_Sentry_base
PUBLIC	??0_Sentry_base@?$basic_ostream@DU?$char_traits@D@std@@@std@@QAE@AAV12@@Z ; std::basic_ostream<char,std::char_traits<char> >::_Sentry_base::_Sentry_base
EXTRN	__imp_?flush@?$basic_ostream@DU?$char_traits@D@std@@@std@@QAEAAV12@XZ:PROC
EXTRN	__imp_?tie@?$basic_ios@DU?$char_traits@D@std@@@std@@QBEPAV?$basic_ostream@DU?$char_traits@D@std@@@2@XZ:PROC
EXTRN	__imp_?good@ios_base@std@@QBE_NXZ:PROC
;	COMDAT xdata$x
; File d:\tools\dev\vs2010\vc\include\ostream
xdata$x	SEGMENT
__unwindtable$??0sentry@?$basic_ostream@DU?$char_traits@D@std@@@std@@QAE@AAV12@@Z DD 0ffffffffH
	DD	FLAT:__unwindfunclet$??0sentry@?$basic_ostream@DU?$char_traits@D@std@@@std@@QAE@AAV12@@Z$0
__ehfuncinfo$??0sentry@?$basic_ostream@DU?$char_traits@D@std@@@std@@QAE@AAV12@@Z DD 019930522H
	DD	01H
	DD	FLAT:__unwindtable$??0sentry@?$basic_ostream@DU?$char_traits@D@std@@@std@@QAE@AAV12@@Z
	DD	2 DUP(00H)
	DD	2 DUP(00H)
	DD	00H
	DD	01H
; Function compile flags: /Odtp /RTCsu /ZI
xdata$x	ENDS
;	COMDAT ??0sentry@?$basic_ostream@DU?$char_traits@D@std@@@std@@QAE@AAV12@@Z
_TEXT	SEGMENT
_this$ = -20						; size = 4
__$EHRec$ = -12						; size = 12
__Ostr$ = 8						; size = 4
??0sentry@?$basic_ostream@DU?$char_traits@D@std@@@std@@QAE@AAV12@@Z PROC ; std::basic_ostream<char,std::char_traits<char> >::sentry::sentry, COMDAT
; _this$ = ecx

; 114  : 			{	// construct locking and testing stream

	push	ebp
	mov	ebp, esp
	push	-1
	push	__ehhandler$??0sentry@?$basic_ostream@DU?$char_traits@D@std@@@std@@QAE@AAV12@@Z
	mov	eax, DWORD PTR fs:0
	push	eax
	sub	esp, 204				; 000000ccH
	push	ebx
	push	esi
	push	edi
	push	ecx
	lea	edi, DWORD PTR [ebp-216]
	mov	ecx, 51					; 00000033H
	mov	eax, -858993460				; ccccccccH
	rep stosd
	pop	ecx
	mov	eax, DWORD PTR ___security_cookie
	xor	eax, ebp
	push	eax
	lea	eax, DWORD PTR __$EHRec$[ebp]
	mov	DWORD PTR fs:0, eax
	mov	DWORD PTR _this$[ebp], ecx
	mov	eax, DWORD PTR __Ostr$[ebp]
	push	eax
	mov	ecx, DWORD PTR _this$[ebp]
	call	??0_Sentry_base@?$basic_ostream@DU?$char_traits@D@std@@@std@@QAE@AAV12@@Z ; std::basic_ostream<char,std::char_traits<char> >::_Sentry_base::_Sentry_base
	mov	DWORD PTR __$EHRec$[ebp+8], 0

; 115  : 			if (_Ostr.good() && _Ostr.tie() != 0)

	mov	eax, DWORD PTR __Ostr$[ebp]
	mov	ecx, DWORD PTR [eax]
	mov	edx, DWORD PTR __Ostr$[ebp]
	add	edx, DWORD PTR [ecx+4]
	mov	esi, esp
	mov	ecx, edx
	call	DWORD PTR __imp_?good@ios_base@std@@QBE_NXZ
	cmp	esi, esp
	call	__RTC_CheckEsp
	movzx	eax, al
	test	eax, eax
	je	SHORT $LN1@sentry
	mov	eax, DWORD PTR __Ostr$[ebp]
	mov	ecx, DWORD PTR [eax]
	mov	edx, DWORD PTR __Ostr$[ebp]
	add	edx, DWORD PTR [ecx+4]
	mov	esi, esp
	mov	ecx, edx
	call	DWORD PTR __imp_?tie@?$basic_ios@DU?$char_traits@D@std@@@std@@QBEPAV?$basic_ostream@DU?$char_traits@D@std@@@2@XZ
	cmp	esi, esp
	call	__RTC_CheckEsp
	test	eax, eax
	je	SHORT $LN1@sentry

; 116  : 				_Ostr.tie()->flush();

	mov	eax, DWORD PTR __Ostr$[ebp]
	mov	ecx, DWORD PTR [eax]
	mov	edx, DWORD PTR __Ostr$[ebp]
	add	edx, DWORD PTR [ecx+4]
	mov	esi, esp
	mov	ecx, edx
	call	DWORD PTR __imp_?tie@?$basic_ios@DU?$char_traits@D@std@@@std@@QBEPAV?$basic_ostream@DU?$char_traits@D@std@@@2@XZ
	cmp	esi, esp
	call	__RTC_CheckEsp
	mov	esi, esp
	mov	ecx, eax
	call	DWORD PTR __imp_?flush@?$basic_ostream@DU?$char_traits@D@std@@@std@@QAEAAV12@XZ
	cmp	esi, esp
	call	__RTC_CheckEsp
$LN1@sentry:

; 117  : 			_Ok = _Ostr.good();	// store test only after flushing tie

	mov	eax, DWORD PTR __Ostr$[ebp]
	mov	ecx, DWORD PTR [eax]
	mov	edx, DWORD PTR __Ostr$[ebp]
	add	edx, DWORD PTR [ecx+4]
	mov	esi, esp
	mov	ecx, edx
	call	DWORD PTR __imp_?good@ios_base@std@@QBE_NXZ
	cmp	esi, esp
	call	__RTC_CheckEsp
	mov	ecx, DWORD PTR _this$[ebp]
	mov	BYTE PTR [ecx+4], al

; 118  : 			}

	mov	DWORD PTR __$EHRec$[ebp+8], -1
	mov	eax, DWORD PTR _this$[ebp]
	mov	ecx, DWORD PTR __$EHRec$[ebp]
	mov	DWORD PTR fs:0, ecx
	pop	ecx
	pop	edi
	pop	esi
	pop	ebx
	add	esp, 216				; 000000d8H
	cmp	ebp, esp
	call	__RTC_CheckEsp
	mov	esp, ebp
	pop	ebp
	ret	4
_TEXT	ENDS
;	COMDAT text$x
text$x	SEGMENT
__unwindfunclet$??0sentry@?$basic_ostream@DU?$char_traits@D@std@@@std@@QAE@AAV12@@Z$0:
	mov	ecx, DWORD PTR _this$[ebp]
	jmp	??1_Sentry_base@?$basic_ostream@DU?$char_traits@D@std@@@std@@QAE@XZ ; std::basic_ostream<char,std::char_traits<char> >::_Sentry_base::~_Sentry_base
__ehhandler$??0sentry@?$basic_ostream@DU?$char_traits@D@std@@@std@@QAE@AAV12@@Z:
	mov	edx, DWORD PTR [esp+8]
	lea	eax, DWORD PTR [edx+12]
	mov	ecx, DWORD PTR [edx-220]
	xor	ecx, eax
	call	@__security_check_cookie@4
	mov	eax, OFFSET __ehfuncinfo$??0sentry@?$basic_ostream@DU?$char_traits@D@std@@@std@@QAE@AAV12@@Z
	jmp	___CxxFrameHandler3
text$x	ENDS
??0sentry@?$basic_ostream@DU?$char_traits@D@std@@@std@@QAE@AAV12@@Z ENDP ; std::basic_ostream<char,std::char_traits<char> >::sentry::sentry
EXTRN	__imp_?_Osfx@?$basic_ostream@DU?$char_traits@D@std@@@std@@QAEXXZ:PROC
EXTRN	__imp_?uncaught_exception@std@@YA_NXZ:PROC
;	COMDAT xdata$x
xdata$x	SEGMENT
__unwindtable$??1sentry@?$basic_ostream@DU?$char_traits@D@std@@@std@@QAE@XZ DD 0ffffffffH
	DD	FLAT:__unwindfunclet$??1sentry@?$basic_ostream@DU?$char_traits@D@std@@@std@@QAE@XZ$0
__ehfuncinfo$??1sentry@?$basic_ostream@DU?$char_traits@D@std@@@std@@QAE@XZ DD 019930522H
	DD	01H
	DD	FLAT:__unwindtable$??1sentry@?$basic_ostream@DU?$char_traits@D@std@@@std@@QAE@XZ
	DD	2 DUP(00H)
	DD	2 DUP(00H)
	DD	00H
	DD	01H
; Function compile flags: /Odtp /RTCsu /ZI
xdata$x	ENDS
;	COMDAT ??1sentry@?$basic_ostream@DU?$char_traits@D@std@@@std@@QAE@XZ
_TEXT	SEGMENT
_this$ = -20						; size = 4
__$EHRec$ = -12						; size = 12
??1sentry@?$basic_ostream@DU?$char_traits@D@std@@@std@@QAE@XZ PROC ; std::basic_ostream<char,std::char_traits<char> >::sentry::~sentry, COMDAT
; _this$ = ecx

; 121  : 			{	// destroy the object

	push	ebp
	mov	ebp, esp
	push	-1
	push	__ehhandler$??1sentry@?$basic_ostream@DU?$char_traits@D@std@@@std@@QAE@XZ
	mov	eax, DWORD PTR fs:0
	push	eax
	sub	esp, 204				; 000000ccH
	push	ebx
	push	esi
	push	edi
	push	ecx
	lea	edi, DWORD PTR [ebp-216]
	mov	ecx, 51					; 00000033H
	mov	eax, -858993460				; ccccccccH
	rep stosd
	pop	ecx
	mov	eax, DWORD PTR ___security_cookie
	xor	eax, ebp
	push	eax
	lea	eax, DWORD PTR __$EHRec$[ebp]
	mov	DWORD PTR fs:0, eax
	mov	DWORD PTR _this$[ebp], ecx
	mov	DWORD PTR __$EHRec$[ebp+8], 0

; 122  :  #if _HAS_EXCEPTIONS
; 123  : 			if (!uncaught_exception())

	mov	esi, esp
	call	DWORD PTR __imp_?uncaught_exception@std@@YA_NXZ
	cmp	esi, esp
	call	__RTC_CheckEsp
	movzx	eax, al
	test	eax, eax
	jne	SHORT $LN2@sentry@2

; 124  : 				this->_Myostr._Osfx();

	mov	esi, esp
	mov	eax, DWORD PTR _this$[ebp]
	mov	ecx, DWORD PTR [eax]
	call	DWORD PTR __imp_?_Osfx@?$basic_ostream@DU?$char_traits@D@std@@@std@@QAEXXZ
	cmp	esi, esp
	call	__RTC_CheckEsp
$LN2@sentry@2:

; 125  : 
; 126  :  #else /* _HAS_EXCEPTIONS */
; 127  : 			this->_Myostr._Osfx();
; 128  :  #endif /* _HAS_EXCEPTIONS */
; 129  : 			}

	mov	DWORD PTR __$EHRec$[ebp+8], -1
	mov	ecx, DWORD PTR _this$[ebp]
	call	??1_Sentry_base@?$basic_ostream@DU?$char_traits@D@std@@@std@@QAE@XZ ; std::basic_ostream<char,std::char_traits<char> >::_Sentry_base::~_Sentry_base
	mov	ecx, DWORD PTR __$EHRec$[ebp]
	mov	DWORD PTR fs:0, ecx
	pop	ecx
	pop	edi
	pop	esi
	pop	ebx
	add	esp, 216				; 000000d8H
	cmp	ebp, esp
	call	__RTC_CheckEsp
	mov	esp, ebp
	pop	ebp
	ret	0
_TEXT	ENDS
;	COMDAT text$x
text$x	SEGMENT
__unwindfunclet$??1sentry@?$basic_ostream@DU?$char_traits@D@std@@@std@@QAE@XZ$0:
	mov	ecx, DWORD PTR _this$[ebp]
	jmp	??1_Sentry_base@?$basic_ostream@DU?$char_traits@D@std@@@std@@QAE@XZ ; std::basic_ostream<char,std::char_traits<char> >::_Sentry_base::~_Sentry_base
__ehhandler$??1sentry@?$basic_ostream@DU?$char_traits@D@std@@@std@@QAE@XZ:
	mov	edx, DWORD PTR [esp+8]
	lea	eax, DWORD PTR [edx+12]
	mov	ecx, DWORD PTR [edx-220]
	xor	ecx, eax
	call	@__security_check_cookie@4
	mov	eax, OFFSET __ehfuncinfo$??1sentry@?$basic_ostream@DU?$char_traits@D@std@@@std@@QAE@XZ
	jmp	___CxxFrameHandler3
text$x	ENDS
??1sentry@?$basic_ostream@DU?$char_traits@D@std@@@std@@QAE@XZ ENDP ; std::basic_ostream<char,std::char_traits<char> >::sentry::~sentry
; Function compile flags: /Odtp /RTCsu /ZI
;	COMDAT ??Bsentry@?$basic_ostream@DU?$char_traits@D@std@@@std@@QBEPQ_Bool_struct@2@HXZ
_TEXT	SEGMENT
_this$ = -8						; size = 4
??Bsentry@?$basic_ostream@DU?$char_traits@D@std@@@std@@QBEPQ_Bool_struct@2@HXZ PROC ; std::basic_ostream<char,std::char_traits<char> >::sentry::operator int std::_Bool_struct::*, COMDAT
; _this$ = ecx

; 132  : 			{	// test if stream state okay

	push	ebp
	mov	ebp, esp
	sub	esp, 204				; 000000ccH
	push	ebx
	push	esi
	push	edi
	push	ecx
	lea	edi, DWORD PTR [ebp-204]
	mov	ecx, 51					; 00000033H
	mov	eax, -858993460				; ccccccccH
	rep stosd
	pop	ecx
	mov	DWORD PTR _this$[ebp], ecx

; 133  : 			return (_Ok ? _CONVERTIBLE_TO_TRUE : 0);

	mov	eax, DWORD PTR _this$[ebp]
	movzx	eax, BYTE PTR [eax+4]
	neg	eax
	sbb	eax, eax
	neg	eax
	sub	eax, 1

; 134  : 			}

	pop	edi
	pop	esi
	pop	ebx
	mov	esp, ebp
	pop	ebp
	ret	0
??Bsentry@?$basic_ostream@DU?$char_traits@D@std@@@std@@QBEPQ_Bool_struct@2@HXZ ENDP ; std::basic_ostream<char,std::char_traits<char> >::sentry::operator int std::_Bool_struct::*
; Function compile flags: /Odtp /RTCsu /ZI
_TEXT	ENDS
;	COMDAT ??0_Sentry_base@?$basic_ostream@DU?$char_traits@D@std@@@std@@QAE@AAV12@@Z
_TEXT	SEGMENT
tv90 = -208						; size = 4
_this$ = -8						; size = 4
__Ostr$ = 8						; size = 4
??0_Sentry_base@?$basic_ostream@DU?$char_traits@D@std@@@std@@QAE@AAV12@@Z PROC ; std::basic_ostream<char,std::char_traits<char> >::_Sentry_base::_Sentry_base, COMDAT
; _this$ = ecx

; 91   : 			{	// lock the stream buffer, if there

	push	ebp
	mov	ebp, esp
	sub	esp, 208				; 000000d0H
	push	ebx
	push	esi
	push	edi
	push	ecx
	lea	edi, DWORD PTR [ebp-208]
	mov	ecx, 52					; 00000034H
	mov	eax, -858993460				; ccccccccH
	rep stosd
	pop	ecx
	mov	DWORD PTR _this$[ebp], ecx
	mov	eax, DWORD PTR _this$[ebp]
	mov	ecx, DWORD PTR __Ostr$[ebp]
	mov	DWORD PTR [eax], ecx

; 92   : 			if (_Myostr.rdbuf() != 0)

	mov	eax, DWORD PTR _this$[ebp]
	mov	ecx, DWORD PTR [eax]
	mov	edx, DWORD PTR [ecx]
	mov	eax, DWORD PTR _this$[ebp]
	mov	ecx, DWORD PTR [eax]
	add	ecx, DWORD PTR [edx+4]
	mov	esi, esp
	call	DWORD PTR __imp_?rdbuf@?$basic_ios@DU?$char_traits@D@std@@@std@@QBEPAV?$basic_streambuf@DU?$char_traits@D@std@@@2@XZ
	cmp	esi, esp
	call	__RTC_CheckEsp
	test	eax, eax
	je	SHORT $LN2@Sentry_bas

; 93   : 				_Myostr.rdbuf()->_Lock();

	mov	eax, DWORD PTR _this$[ebp]
	mov	ecx, DWORD PTR [eax]
	mov	edx, DWORD PTR [ecx]
	mov	eax, DWORD PTR _this$[ebp]
	mov	ecx, DWORD PTR [eax]
	add	ecx, DWORD PTR [edx+4]
	mov	esi, esp
	call	DWORD PTR __imp_?rdbuf@?$basic_ios@DU?$char_traits@D@std@@@std@@QBEPAV?$basic_streambuf@DU?$char_traits@D@std@@@2@XZ
	cmp	esi, esp
	call	__RTC_CheckEsp
	mov	DWORD PTR tv90[ebp], eax
	mov	ecx, DWORD PTR tv90[ebp]
	mov	edx, DWORD PTR [ecx]
	mov	esi, esp
	mov	ecx, DWORD PTR tv90[ebp]
	mov	eax, DWORD PTR [edx+4]
	call	eax
	cmp	esi, esp
	call	__RTC_CheckEsp
$LN2@Sentry_bas:

; 94   : 			}

	mov	eax, DWORD PTR _this$[ebp]
	pop	edi
	pop	esi
	pop	ebx
	add	esp, 208				; 000000d0H
	cmp	ebp, esp
	call	__RTC_CheckEsp
	mov	esp, ebp
	pop	ebp
	ret	4
??0_Sentry_base@?$basic_ostream@DU?$char_traits@D@std@@@std@@QAE@AAV12@@Z ENDP ; std::basic_ostream<char,std::char_traits<char> >::_Sentry_base::_Sentry_base
; Function compile flags: /Odtp /RTCsu /ZI
_TEXT	ENDS
;	COMDAT ??1_Sentry_base@?$basic_ostream@DU?$char_traits@D@std@@@std@@QAE@XZ
_TEXT	SEGMENT
tv90 = -208						; size = 4
_this$ = -8						; size = 4
??1_Sentry_base@?$basic_ostream@DU?$char_traits@D@std@@@std@@QAE@XZ PROC ; std::basic_ostream<char,std::char_traits<char> >::_Sentry_base::~_Sentry_base, COMDAT
; _this$ = ecx

; 97   : 			{	// destroy after unlocking

	push	ebp
	mov	ebp, esp
	sub	esp, 208				; 000000d0H
	push	ebx
	push	esi
	push	edi
	push	ecx
	lea	edi, DWORD PTR [ebp-208]
	mov	ecx, 52					; 00000034H
	mov	eax, -858993460				; ccccccccH
	rep stosd
	pop	ecx
	mov	DWORD PTR _this$[ebp], ecx

; 98   : 			if (_Myostr.rdbuf() != 0)

	mov	eax, DWORD PTR _this$[ebp]
	mov	ecx, DWORD PTR [eax]
	mov	edx, DWORD PTR [ecx]
	mov	eax, DWORD PTR _this$[ebp]
	mov	ecx, DWORD PTR [eax]
	add	ecx, DWORD PTR [edx+4]
	mov	esi, esp
	call	DWORD PTR __imp_?rdbuf@?$basic_ios@DU?$char_traits@D@std@@@std@@QBEPAV?$basic_streambuf@DU?$char_traits@D@std@@@2@XZ
	cmp	esi, esp
	call	__RTC_CheckEsp
	test	eax, eax
	je	SHORT $LN2@Sentry_bas@2

; 99   : 				_Myostr.rdbuf()->_Unlock();

	mov	eax, DWORD PTR _this$[ebp]
	mov	ecx, DWORD PTR [eax]
	mov	edx, DWORD PTR [ecx]
	mov	eax, DWORD PTR _this$[ebp]
	mov	ecx, DWORD PTR [eax]
	add	ecx, DWORD PTR [edx+4]
	mov	esi, esp
	call	DWORD PTR __imp_?rdbuf@?$basic_ios@DU?$char_traits@D@std@@@std@@QBEPAV?$basic_streambuf@DU?$char_traits@D@std@@@2@XZ
	cmp	esi, esp
	call	__RTC_CheckEsp
	mov	DWORD PTR tv90[ebp], eax
	mov	ecx, DWORD PTR tv90[ebp]
	mov	edx, DWORD PTR [ecx]
	mov	esi, esp
	mov	ecx, DWORD PTR tv90[ebp]
	mov	eax, DWORD PTR [edx+8]
	call	eax
	cmp	esi, esp
	call	__RTC_CheckEsp
$LN2@Sentry_bas@2:

; 100  : 			}

	pop	edi
	pop	esi
	pop	ebx
	add	esp, 208				; 000000d0H
	cmp	ebp, esp
	call	__RTC_CheckEsp
	mov	esp, ebp
	pop	ebp
	ret	0
??1_Sentry_base@?$basic_ostream@DU?$char_traits@D@std@@@std@@QAE@XZ ENDP ; std::basic_ostream<char,std::char_traits<char> >::_Sentry_base::~_Sentry_base
_TEXT	ENDS
END
